
ws2.elf:     file format elf32-littlenios2
ws2.elf
architecture: nios2:r1, flags 0x00000112:
EXEC_P, HAS_SYMS, D_PAGED
start address 0x08000000

Program Header:
    LOAD off    0x00001000 vaddr 0x00000000 paddr 0x00000000 align 2**12
         filesz 0x00000020 memsz 0x00000020 flags r-x
    LOAD off    0x00001020 vaddr 0x00000020 paddr 0x00000020 align 2**12
         filesz 0x0000021c memsz 0x0000021c flags r-x
    LOAD off    0x00002000 vaddr 0x08000000 paddr 0x08000000 align 2**12
         filesz 0x00357754 memsz 0x00357754 flags r-x
    LOAD off    0x00359754 vaddr 0x08357754 paddr 0x08359288 align 2**12
         filesz 0x00001b34 memsz 0x00001b34 flags rw-
    LOAD off    0x0035bdbc vaddr 0x0835adbc paddr 0x0835adbc align 2**12
         filesz 0x00000000 memsz 0x0012c2f4 flags rw-

Sections:
Idx Name          Size      VMA       LMA       File off  Algn
  0 .entry        00000020  00000000  00000000  00001000  2**5
                  CONTENTS, ALLOC, LOAD, READONLY, CODE
  1 .exceptions   0000021c  00000020  00000020  00001020  2**2
                  CONTENTS, ALLOC, LOAD, READONLY, CODE
  2 .text         00016e38  08000000  08000000  00002000  2**2
                  CONTENTS, ALLOC, LOAD, READONLY, CODE
  3 .rodata       0034091c  08016e38  08016e38  00018e38  2**2
                  CONTENTS, ALLOC, LOAD, READONLY, DATA
  4 .rwdata       00001b34  08357754  08359288  00359754  2**2
                  CONTENTS, ALLOC, LOAD, DATA, SMALL_DATA
  5 .bss          0012c39e  0835adbc  0835adbc  0035bdbc  2**2
                  ALLOC, SMALL_DATA
  6 .onchip_memory2_0 00000000  0000023c  0000023c  0035b288  2**0
                  CONTENTS
  7 .sdram        00000000  084870b0  084870b0  0035b288  2**0
                  CONTENTS
  8 .comment      00000023  00000000  00000000  0035b288  2**0
                  CONTENTS, READONLY
  9 .debug_aranges 00001280  00000000  00000000  0035b2b0  2**3
                  CONTENTS, READONLY, DEBUGGING
 10 .debug_info   0002b1bd  00000000  00000000  0035c530  2**0
                  CONTENTS, READONLY, DEBUGGING
 11 .debug_abbrev 0000b1e7  00000000  00000000  003876ed  2**0
                  CONTENTS, READONLY, DEBUGGING
 12 .debug_line   0000dfdb  00000000  00000000  003928d4  2**0
                  CONTENTS, READONLY, DEBUGGING
 13 .debug_frame  00003310  00000000  00000000  003a08b0  2**2
                  CONTENTS, READONLY, DEBUGGING
 14 .debug_str    00005039  00000000  00000000  003a3bc0  2**0
                  CONTENTS, READONLY, DEBUGGING
 15 .debug_loc    0001a9f1  00000000  00000000  003a8bf9  2**0
                  CONTENTS, READONLY, DEBUGGING
 16 .debug_alt_sim_info 00000040  00000000  00000000  003c35ec  2**2
                  CONTENTS, READONLY, DEBUGGING
 17 .debug_ranges 00001ee8  00000000  00000000  003c3630  2**3
                  CONTENTS, READONLY, DEBUGGING
 18 .thread_model 00000003  00000000  00000000  003ca3a2  2**0
                  CONTENTS, READONLY
 19 .cpu          0000000c  00000000  00000000  003ca3a5  2**0
                  CONTENTS, READONLY
 20 .qsys         00000001  00000000  00000000  003ca3b1  2**0
                  CONTENTS, READONLY
 21 .simulation_enabled 00000001  00000000  00000000  003ca3b2  2**0
                  CONTENTS, READONLY
 22 .sysid_hash   00000004  00000000  00000000  003ca3b3  2**0
                  CONTENTS, READONLY
 23 .sysid_base   00000004  00000000  00000000  003ca3b7  2**0
                  CONTENTS, READONLY
 24 .sysid_time   00000004  00000000  00000000  003ca3bb  2**0
                  CONTENTS, READONLY
 25 .stderr_dev   0000000b  00000000  00000000  003ca3bf  2**0
                  CONTENTS, READONLY
 26 .stdin_dev    0000000b  00000000  00000000  003ca3ca  2**0
                  CONTENTS, READONLY
 27 .stdout_dev   0000000b  00000000  00000000  003ca3d5  2**0
                  CONTENTS, READONLY
 28 .sopc_system_name 00000003  00000000  00000000  003ca3e0  2**0
                  CONTENTS, READONLY
 29 .quartus_project_dir 00000033  00000000  00000000  003ca3e3  2**0
                  CONTENTS, READONLY
 30 .jdi          00004a8a  00000000  00000000  003ca416  2**0
                  CONTENTS, READONLY
 31 .sopcinfo     00080bce  00000000  00000000  003ceea0  2**0
                  CONTENTS, READONLY
SYMBOL TABLE:
00000000 l    d  .entry	00000000 .entry
00000020 l    d  .exceptions	00000000 .exceptions
08000000 l    d  .text	00000000 .text
08016e38 l    d  .rodata	00000000 .rodata
08357754 l    d  .rwdata	00000000 .rwdata
0835adbc l    d  .bss	00000000 .bss
0000023c l    d  .onchip_memory2_0	00000000 .onchip_memory2_0
084870b0 l    d  .sdram	00000000 .sdram
00000000 l    d  .comment	00000000 .comment
00000000 l    d  .debug_aranges	00000000 .debug_aranges
00000000 l    d  .debug_info	00000000 .debug_info
00000000 l    d  .debug_abbrev	00000000 .debug_abbrev
00000000 l    d  .debug_line	00000000 .debug_line
00000000 l    d  .debug_frame	00000000 .debug_frame
00000000 l    d  .debug_str	00000000 .debug_str
00000000 l    d  .debug_loc	00000000 .debug_loc
00000000 l    d  .debug_alt_sim_info	00000000 .debug_alt_sim_info
00000000 l    d  .debug_ranges	00000000 .debug_ranges
00000000 l    df *ABS*	00000000 ../ws2_bsp//obj/HAL/src/crt0.o
08000038 l       .text	00000000 alt_after_alt_main
00000000 l    df *ABS*	00000000 alt_irq_handler.c
00000000 l    df *ABS*	00000000 alt_instruction_exception_entry.c
00000000 l    df *ABS*	00000000 common.c
00000000 l    df *ABS*	00000000 display.c
08016e38 l     O .rodata	00000730 playership0_bitmap
08017568 l     O .rodata	00000024 playership0_sprite
0801758c l     O .rodata	00001be8 playership1_bitmap
08019174 l     O .rodata	00000024 playership1_sprite
08019198 l     O .rodata	00000550 enemyship0_bitmap
080196e8 l     O .rodata	00000024 enemyship0_sprite
0801970c l     O .rodata	00001650 enemyship1_bitmap
0801ad5c l     O .rodata	00000024 enemyship1_sprite
0801ad80 l     O .rodata	00000264 weapon1_0_bitmap
0801afe4 l     O .rodata	00000024 weapon1_0_sprite
0801b008 l     O .rodata	00000264 weapon1_1_bitmap
0801b26c l     O .rodata	00000024 weapon1_1_sprite
0801b290 l     O .rodata	00000264 weapon1_2_bitmap
0801b4f4 l     O .rodata	00000024 weapon1_2_sprite
0801b518 l     O .rodata	000002f4 weapon1_3_bitmap
0801b80c l     O .rodata	00000024 weapon1_3_sprite
0801b830 l     O .rodata	0000002c missle_data
0801b85c l     O .rodata	0000003c player_fighter
0801b898 l     O .rodata	0000003c player_cruiser
0801b8d4 l     O .rodata	0000003c enemy_fighter
0801b910 l     O .rodata	0000003c enemy_cruiser
0835adbc l     O .bss	00000004 frame.1841
00000000 l    df *ABS*	00000000 game.c
0801b94c l     O .rodata	00000730 playership0_bitmap
0801c07c l     O .rodata	00000024 playership0_sprite
0801c0a0 l     O .rodata	00001be8 playership1_bitmap
0801dc88 l     O .rodata	00000024 playership1_sprite
0801dcac l     O .rodata	00000550 enemyship0_bitmap
0801e1fc l     O .rodata	00000024 enemyship0_sprite
0801e220 l     O .rodata	00001650 enemyship1_bitmap
0801f870 l     O .rodata	00000024 enemyship1_sprite
0801f894 l     O .rodata	00000264 weapon1_0_bitmap
0801faf8 l     O .rodata	00000024 weapon1_0_sprite
0801fb1c l     O .rodata	00000264 weapon1_1_bitmap
0801fd80 l     O .rodata	00000024 weapon1_1_sprite
0801fda4 l     O .rodata	00000264 weapon1_2_bitmap
08020008 l     O .rodata	00000024 weapon1_2_sprite
0802002c l     O .rodata	000002f4 weapon1_3_bitmap
08020320 l     O .rodata	00000024 weapon1_3_sprite
08020344 l     O .rodata	0000002c missle_data
08020370 l     O .rodata	0000003c player_fighter
080203ac l     O .rodata	0000003c player_cruiser
080203e8 l     O .rodata	0000003c enemy_fighter
08020424 l     O .rodata	0000003c enemy_cruiser
00000000 l    df *ABS*	00000000 gdu.c
08359230 l     O .rwdata	00000004 gdu_mem
00000000 l    df *ABS*	00000000 level1.c
08020460 l     O .rodata	00000730 playership0_bitmap
08020b90 l     O .rodata	00000024 playership0_sprite
08020bb4 l     O .rodata	00001be8 playership1_bitmap
0802279c l     O .rodata	00000024 playership1_sprite
080227c0 l     O .rodata	00000550 enemyship0_bitmap
08022d10 l     O .rodata	00000024 enemyship0_sprite
08022d34 l     O .rodata	00001650 enemyship1_bitmap
08024384 l     O .rodata	00000024 enemyship1_sprite
080243a8 l     O .rodata	00000264 weapon1_0_bitmap
0802460c l     O .rodata	00000024 weapon1_0_sprite
08024630 l     O .rodata	00000264 weapon1_1_bitmap
08024894 l     O .rodata	00000024 weapon1_1_sprite
080248b8 l     O .rodata	00000264 weapon1_2_bitmap
08024b1c l     O .rodata	00000024 weapon1_2_sprite
08024b40 l     O .rodata	000002f4 weapon1_3_bitmap
08024e34 l     O .rodata	00000024 weapon1_3_sprite
08024e58 l     O .rodata	0000002c missle_data
08024e84 l     O .rodata	0000003c player_fighter
08024ec0 l     O .rodata	0000003c player_cruiser
08024efc l     O .rodata	0000003c enemy_fighter
08024f38 l     O .rodata	0000003c enemy_cruiser
08024f74 l     O .rodata	000e1000 level1_background_bitmap
08105f74 l     O .rodata	00000024 level1_background_sprite
08105f98 l     O .rodata	0002bf20 level1_player_planet_bitmap
08131eb8 l     O .rodata	00000024 level1_player_planet_sprite
08131edc l     O .rodata	0002bf20 level1_enemy_planet_bitmap
0815ddfc l     O .rodata	00000024 level1_enemy_planet_sprite
0815de20 l     O .rodata	00012c00 statusbar_bitmap
08170a20 l     O .rodata	00000024 statusbar_sprite
08170a44 l     O .rodata	0000254c greenhealth_bitmap
08172f90 l     O .rodata	00000024 greenhealth_sprite
08172fb4 l     O .rodata	0000254c redhealth_bitmap
08175500 l     O .rodata	00000024 redhealth_sprite
08175524 l     O .rodata	000009b0 warning_bitmap
08175ed4 l     O .rodata	00000024 warning_sprite
08175ef8 l     O .rodata	00000420 cursor_bitmap
08176318 l     O .rodata	00000024 cursor_sprite
00000000 l    df *ABS*	00000000 title_screen.c
0817633c l     O .rodata	00000730 playership0_bitmap
08176a6c l     O .rodata	00000024 playership0_sprite
08176a90 l     O .rodata	00001be8 playership1_bitmap
08178678 l     O .rodata	00000024 playership1_sprite
0817869c l     O .rodata	00000550 enemyship0_bitmap
08178bec l     O .rodata	00000024 enemyship0_sprite
08178c10 l     O .rodata	00001650 enemyship1_bitmap
0817a260 l     O .rodata	00000024 enemyship1_sprite
0817a284 l     O .rodata	00000264 weapon1_0_bitmap
0817a4e8 l     O .rodata	00000024 weapon1_0_sprite
0817a50c l     O .rodata	00000264 weapon1_1_bitmap
0817a770 l     O .rodata	00000024 weapon1_1_sprite
0817a794 l     O .rodata	00000264 weapon1_2_bitmap
0817a9f8 l     O .rodata	00000024 weapon1_2_sprite
0817aa1c l     O .rodata	000002f4 weapon1_3_bitmap
0817ad10 l     O .rodata	00000024 weapon1_3_sprite
0817ad34 l     O .rodata	0000002c missle_data
0817ad60 l     O .rodata	0000003c player_fighter
0817ad9c l     O .rodata	0000003c player_cruiser
0817add8 l     O .rodata	0000003c enemy_fighter
0817ae14 l     O .rodata	0000003c enemy_cruiser
0817ae50 l     O .rodata	00177000 lightspeed_background_bitmap
082f1e50 l     O .rodata	00000024 lightspeed_background_sprite
082f1e74 l     O .rodata	0000b3b0 title_screen_ship_bitmap
082fd224 l     O .rodata	00000024 title_screen_ship_sprite
082fd248 l     O .rodata	0000d8f0 WAR_STARS_II_bitmap
0830ab38 l     O .rodata	00000024 WAR_STARS_II_sprite
0830ab5c l     O .rodata	00009ab0 start_button_unpressed_bitmap
0831460c l     O .rodata	00000024 start_button_unpressed_sprite
08314630 l     O .rodata	00009ab0 start_button_pressed_bitmap
0831e0e0 l     O .rodata	00000024 start_button_pressed_sprite
0831e104 l     O .rodata	00000420 cursor_bitmap
0831e524 l     O .rodata	00000024 cursor_sprite
00000000 l    df *ABS*	00000000 main.c
0831e548 l     O .rodata	00000730 playership0_bitmap
0831ec78 l     O .rodata	00000024 playership0_sprite
0831ec9c l     O .rodata	00001be8 playership1_bitmap
08320884 l     O .rodata	00000024 playership1_sprite
083208a8 l     O .rodata	00000550 enemyship0_bitmap
08320df8 l     O .rodata	00000024 enemyship0_sprite
08320e1c l     O .rodata	00001650 enemyship1_bitmap
0832246c l     O .rodata	00000024 enemyship1_sprite
08322490 l     O .rodata	00000264 weapon1_0_bitmap
083226f4 l     O .rodata	00000024 weapon1_0_sprite
08322718 l     O .rodata	00000264 weapon1_1_bitmap
0832297c l     O .rodata	00000024 weapon1_1_sprite
083229a0 l     O .rodata	00000264 weapon1_2_bitmap
08322c04 l     O .rodata	00000024 weapon1_2_sprite
08322c28 l     O .rodata	000002f4 weapon1_3_bitmap
08322f1c l     O .rodata	00000024 weapon1_3_sprite
08322f40 l     O .rodata	0000002c missle_data
08322f6c l     O .rodata	0000003c player_fighter
08322fa8 l     O .rodata	0000003c player_cruiser
08322fe4 l     O .rodata	0000003c enemy_fighter
08323020 l     O .rodata	0000003c enemy_cruiser
0832305c l     O .rodata	00034260 mouse_bitmap
083572bc l     O .rodata	00000024 mouse_sprite
00000000 l    df *ABS*	00000000 mouse.c
08359234 l     O .rwdata	00000001 addr
0835adc0 l     O .bss	00000001 runningdebugflag.3238
0835adc1 l     O .bss	00000001 device.3237
0835adc2 l     O .bss	00000008 buf.3236
00000000 l    df *ABS*	00000000 timer.c
00000000 l    df *ABS*	00000000 HID.c
00000000 l    df *ABS*	00000000 MAX3421E.c
00000000 l    df *ABS*	00000000 transfer.c
0835add8 l     O .bss	00000004 usb_delay.2652
0835addc l     O .bss	00000001 tmp_addr.2653
00000000 l    df *ABS*	00000000 vga.c
0835ae40 l     O .bss	0012c000 vga_mem
08359248 l     O .rwdata	00000004 vga_regs
00000000 l    df *ABS*	00000000 libgcc2.c
00000000 l    df *ABS*	00000000 libgcc2.c
00000000 l    df *ABS*	00000000 libgcc2.c
00000000 l    df *ABS*	00000000 libgcc2.c
00000000 l    df *ABS*	00000000 lib2-divmod.c
00000000 l    df *ABS*	00000000 lib2-mul.c
00000000 l    df *ABS*	00000000 addsf3.c
00000000 l    df *ABS*	00000000 divsf3.c
00000000 l    df *ABS*	00000000 gesf2.c
00000000 l    df *ABS*	00000000 lesf2.c
00000000 l    df *ABS*	00000000 mulsf3.c
00000000 l    df *ABS*	00000000 subsf3.c
00000000 l    df *ABS*	00000000 fixsfsi.c
00000000 l    df *ABS*	00000000 floatsisf.c
00000000 l    df *ABS*	00000000 adddf3.c
00000000 l    df *ABS*	00000000 gedf2.c
00000000 l    df *ABS*	00000000 muldf3.c
00000000 l    df *ABS*	00000000 subdf3.c
00000000 l    df *ABS*	00000000 fixdfsi.c
00000000 l    df *ABS*	00000000 floatunsidf.c
00000000 l    df *ABS*	00000000 extendsfdf2.c
00000000 l    df *ABS*	00000000 truncdfsf2.c
00000000 l    df *ABS*	00000000 libgcc2.c
00000000 l    df *ABS*	00000000 libgcc2.c
00000000 l    df *ABS*	00000000 memcpy.c
00000000 l    df *ABS*	00000000 memset.c
00000000 l    df *ABS*	00000000 printf.c
00000000 l    df *ABS*	00000000 puts.c
00000000 l    df *ABS*	00000000 rand.c
00000000 l    df *ABS*	00000000 strlen.c
00000000 l    df *ABS*	00000000 vfprintf.c
0835759a l     O .rodata	00000010 zeroes.4404
0800be58 l     F .text	000000bc __sbprintf
083575aa l     O .rodata	00000010 blanks.4403
00000000 l    df *ABS*	00000000 wsetup.c
00000000 l    df *ABS*	00000000 dtoa.c
0800c068 l     F .text	00000228 quorem
00000000 l    df *ABS*	00000000 fflush.c
00000000 l    df *ABS*	00000000 findfp.c
0800dbc0 l     F .text	00000008 __fp_unlock
0800dbd4 l     F .text	0000019c __sinit.part.1
0800dd70 l     F .text	00000008 __fp_lock
00000000 l    df *ABS*	00000000 mallocr.c
00000000 l    df *ABS*	00000000 fvwrite.c
00000000 l    df *ABS*	00000000 fwalk.c
00000000 l    df *ABS*	00000000 impure.c
08357784 l     O .rwdata	00000424 impure_data
00000000 l    df *ABS*	00000000 locale.c
08357bc8 l     O .rwdata	00000020 lc_ctype_charset
08357ba8 l     O .rwdata	00000020 lc_message_charset
08357be8 l     O .rwdata	00000038 lconv
00000000 l    df *ABS*	00000000 makebuf.c
00000000 l    df *ABS*	00000000 mallocr.c
00000000 l    df *ABS*	00000000 memchr.c
00000000 l    df *ABS*	00000000 memmove.c
00000000 l    df *ABS*	00000000 mprec.c
083575dc l     O .rodata	0000000c p05.2768
00000000 l    df *ABS*	00000000 mallocr.c
00000000 l    df *ABS*	00000000 s_fpclassify.c
00000000 l    df *ABS*	00000000 sbrkr.c
00000000 l    df *ABS*	00000000 stdio.c
00000000 l    df *ABS*	00000000 strcmp.c
00000000 l    df *ABS*	00000000 vfprintf.c
08010fd4 l     F .text	000000fc __sprint_r.part.0
08357700 l     O .rodata	00000010 zeroes.4349
08012610 l     F .text	000000bc __sbprintf
08357710 l     O .rodata	00000010 blanks.4348
00000000 l    df *ABS*	00000000 writer.c
00000000 l    df *ABS*	00000000 closer.c
00000000 l    df *ABS*	00000000 mallocr.c
00000000 l    df *ABS*	00000000 fclose.c
00000000 l    df *ABS*	00000000 fputwc.c
00000000 l    df *ABS*	00000000 fstatr.c
00000000 l    df *ABS*	00000000 int_errno.c
00000000 l    df *ABS*	00000000 isattyr.c
00000000 l    df *ABS*	00000000 lseekr.c
00000000 l    df *ABS*	00000000 readr.c
00000000 l    df *ABS*	00000000 wbuf.c
00000000 l    df *ABS*	00000000 wcrtomb.c
00000000 l    df *ABS*	00000000 wctomb_r.c
00000000 l    df *ABS*	00000000 libgcc2.c
00000000 l    df *ABS*	00000000 libgcc2.c
00000000 l    df *ABS*	00000000 divdf3.c
00000000 l    df *ABS*	00000000 eqdf2.c
00000000 l    df *ABS*	00000000 ledf2.c
00000000 l    df *ABS*	00000000 floatsidf.c
00000000 l    df *ABS*	00000000 alt_close.c
08014310 l     F .text	0000003c alt_get_errno
00000000 l    df *ABS*	00000000 alt_dev.c
08014424 l     F .text	0000002c alt_dev_null_write
00000000 l    df *ABS*	00000000 alt_errno.c
00000000 l    df *ABS*	00000000 alt_fstat.c
08014450 l     F .text	0000003c alt_get_errno
00000000 l    df *ABS*	00000000 alt_isatty.c
08014544 l     F .text	0000003c alt_get_errno
00000000 l    df *ABS*	00000000 alt_load.c
0801462c l     F .text	00000068 alt_load_section
00000000 l    df *ABS*	00000000 alt_lseek.c
08014718 l     F .text	0000003c alt_get_errno
00000000 l    df *ABS*	00000000 alt_main.c
00000000 l    df *ABS*	00000000 alt_malloc_lock.c
00000000 l    df *ABS*	00000000 alt_read.c
080148f4 l     F .text	0000003c alt_get_errno
00000000 l    df *ABS*	00000000 alt_release_fd.c
00000000 l    df *ABS*	00000000 alt_sbrk.c
0835927c l     O .rwdata	00000004 heap_end
00000000 l    df *ABS*	00000000 alt_tick.c
00000000 l    df *ABS*	00000000 alt_usleep.c
00000000 l    df *ABS*	00000000 alt_write.c
08014d3c l     F .text	0000003c alt_get_errno
00000000 l    df *ABS*	00000000 alt_sys_init.c
08014e78 l     F .text	00000034 alt_dev_reg
083581d0 l     O .rwdata	00001060 jtag_uart_0
00000000 l    df *ABS*	00000000 altera_avalon_jtag_uart_fd.c
00000000 l    df *ABS*	00000000 altera_avalon_jtag_uart_init.c
0801516c l     F .text	0000020c altera_avalon_jtag_uart_irq
08015378 l     F .text	000000a0 altera_avalon_jtag_uart_timeout
00000000 l    df *ABS*	00000000 altera_avalon_jtag_uart_ioctl.c
00000000 l    df *ABS*	00000000 altera_avalon_jtag_uart_read.c
00000000 l    df *ABS*	00000000 altera_avalon_jtag_uart_write.c
00000000 l    df *ABS*	00000000 altera_avalon_spi.c
00000000 l    df *ABS*	00000000 altera_avalon_timer_sc.c
08015bac l     F .text	00000078 alt_avalon_timer_sc_irq
00000000 l    df *ABS*	00000000 alt_alarm_start.c
00000000 l    df *ABS*	00000000 alt_busy_sleep.c
00000000 l    df *ABS*	00000000 alt_dcache_flush_all.c
00000000 l    df *ABS*	00000000 alt_dev_llist_insert.c
08015f44 l     F .text	0000003c alt_get_errno
00000000 l    df *ABS*	00000000 alt_do_ctors.c
00000000 l    df *ABS*	00000000 alt_do_dtors.c
00000000 l    df *ABS*	00000000 alt_icache_flush_all.c
00000000 l    df *ABS*	00000000 alt_iic.c
00000000 l    df *ABS*	00000000 alt_iic_isr_register.c
00000000 l    df *ABS*	00000000 alt_io_redirect.c
080163a4 l     F .text	000000e4 alt_open_fd
00000000 l    df *ABS*	00000000 alt_irq_vars.c
00000000 l    df *ABS*	00000000 alt_open.c
08016504 l     F .text	0000003c alt_get_errno
08016540 l     F .text	000000ec alt_file_locked
00000000 l    df *ABS*	00000000 altera_nios2_gen2_irq.c
00000000 l    df *ABS*	00000000 alt_find_dev.c
00000000 l    df *ABS*	00000000 alt_find_file.c
00000000 l    df *ABS*	00000000 alt_get_fd.c
00000000 l    df *ABS*	00000000 atexit.c
00000000 l    df *ABS*	00000000 exit.c
00000000 l    df *ABS*	00000000 memcmp.c
00000000 l    df *ABS*	00000000 __atexit.c
00000000 l    df *ABS*	00000000 __call_atexit.c
00000000 l    df *ABS*	00000000 alt_exit.c
0835ae14 g     O .bss	00000004 alt_instruction_exception_handler
08010618 g     F .text	00000074 _mprec_log10
08010704 g     F .text	0000008c __any_on
08012bc4 g     F .text	00000054 _isatty_r
083575e8 g     O .rodata	00000028 __mprec_tinytens
08014830 g     F .text	0000007c alt_main
0835923c g     O .rwdata	00000008 ctrl_xfers
08009978 g     F .text	000000c0 _puts_r
08486fb0 g     O .bss	00000100 alt_irq
08012c18 g     F .text	00000060 _lseek_r
08004e58 g     F .text	00000644 USB_Task
08359288 g       *ABS*	00000000 __flash_rwdata_start
080140b8 g     F .text	00000088 .hidden __eqdf2
08000f3c g     F .text	000000b4 allocate_ship
084870b0 g       *ABS*	00000000 __alt_heap_start
0800993c g     F .text	0000003c printf
08012e30 g     F .text	0000009c _wcrtomb_r
08004084 g     F .text	00000088 kbdPoll
08010e94 g     F .text	0000005c __sseek
0800df20 g     F .text	00000010 __sinit
08012cd8 g     F .text	00000140 __swbuf_r
0800e9f4 g     F .text	0000007c _setlocale_r
0800dd78 g     F .text	00000078 __sfmoreglue
080148d0 g     F .text	00000024 __malloc_unlock
08002fe8 g     F .text	000001bc GetDriverandReport
080014fc g     F .text	000004f0 update_ships
080066fc g     F .text	00000440 .hidden __divsf3
08003518 g     F .text	00000028 disable_master_timer
0800f57c g     F .text	0000015c memmove
0800df08 g     F .text	00000018 _cleanup
08000ee8 g     F .text	00000054 ship_select
0800f6d8 g     F .text	000000a8 _Balloc
080075d4 g     F .text	00000070 .hidden __fixsfsi
08005794 g     F .text	00000058 set_aura
080041d8 g     F .text	0000006c MAXreg_wr
08357754 g     O .rwdata	00000030 ClientDriverTable
08008014 g     F .text	000000dc .hidden __gtdf2
08016788 g     F .text	00000024 altera_nios2_gen2_irq_init
0800549c g     F .text	0000002c MSDProbe
00000000 g     F .entry	0000000c __reset
08004958 g     F .text	000000e8 XferCtrlData
00000020 g       *ABS*	00000000 __flash_exceptions_start
0835ae18 g     O .bss	00000010 hid_ep
08012b68 g     F .text	0000005c _fstat_r
0835adf8 g     O .bss	00000004 errno
08010e10 g     F .text	00000008 __seofread
0835ae00 g     O .bss	00000004 alt_argv
08361230 g       *ABS*	00000000 _gp
08014d0c g     F .text	00000030 usleep
080042dc g     F .text	0000005c MAXreg_rd
080070f0 g     F .text	000004e4 .hidden __subsf3
08003600 g     F .text	000000bc create_rate
08003540 g     F .text	0000005c get_time
0800346c g     F .text	00000080 is_clicked
080019ec g     F .text	0000007c update_game
08358050 g     O .rwdata	00000180 alt_fd_list
08003fa4 g     F .text	00000040 HID_init
080167ac g     F .text	00000090 alt_find_dev
0800969c g     F .text	00000148 memcpy
0800dbc8 g     F .text	0000000c _cleanup_r
08014234 g     F .text	000000dc .hidden __floatsidf
08016488 g     F .text	0000007c alt_io_redirect
08014140 g     F .text	000000f4 .hidden __ltdf2
08000420 g     F .text	00000048 double_render
08016e38 g       *ABS*	00000000 __DTOR_END__
08009a38 g     F .text	00000014 puts
08016a08 g     F .text	0000009c alt_exception_cause_generated_bad_addr
0800359c g     F .text	00000064 get_micros
08010cf4 g     F .text	00000074 __fpclassifyd
08010574 g     F .text	000000a4 __ratio
080125f4 g     F .text	0000001c __vfiprintf_internal
08015570 g     F .text	0000021c altera_avalon_jtag_uart_read
0800990c g     F .text	00000030 _printf_r
08000c90 g     F .text	00000034 deallocate_object
00000000 g       *ABS*	00000000 __alt_mem_onchip_memory2_0
08006150 g     F .text	00000064 .hidden __udivsi3
08014580 g     F .text	000000ac isatty
08357638 g     O .rodata	000000c8 __mprec_tens
0800ea70 g     F .text	0000000c __locale_charset
08006bf8 g     F .text	000000c8 .hidden __lesf2
0800594c g     F .text	00000074 .hidden __fixunsdfsi
080006b8 g     F .text	000001b8 mouse_over_object
0835adf4 g     O .bss	00000004 __malloc_top_pad
08359244 g     O .rwdata	00000001 usb_task_state
08359254 g     O .rwdata	00000004 __mb_cur_max
0800eaa0 g     F .text	0000000c _localeconv_r
0800fb0c g     F .text	0000003c __i2b
0800e3a4 g     F .text	000004c8 __sfvwrite_r
08010d68 g     F .text	00000054 _sbrk_r
08012c78 g     F .text	00000060 _read_r
08004614 g     F .text	00000094 MAX3421E_init
08359274 g     O .rwdata	00000004 alt_max_fd
0801285c g     F .text	000000f0 _fclose_r
0800db90 g     F .text	00000030 fflush
0835adf0 g     O .bss	00000004 __malloc_max_sbrked_mem
08009380 g     F .text	00000110 .hidden __extendsfdf2
08359238 g     O .rwdata	00000004 timer_regs
08007768 g     F .text	000008ac .hidden __adddf3
0801031c g     F .text	0000010c __b2d
080056a4 g     F .text	00000040 vga_init
08013124 g     F .text	000005c4 .hidden __umoddi3
08014754 g     F .text	000000dc lseek
0835924c g     O .rwdata	00000004 _global_impure_ptr
08010790 g     F .text	00000564 _realloc_r
00001000 g       *ABS*	00000000 __alt_exception_stack_pointer
084870b0 g       *ABS*	00000000 __bss_end
080162b4 g     F .text	000000f0 alt_iic_isr_register
08014c04 g     F .text	00000108 alt_tick
08005a5c g     F .text	000005fc .hidden __udivdi3
08012ac4 g     F .text	00000024 _fputwc_r
08005870 g     F .text	0000007c getPixel
08357610 g     O .rodata	00000028 __mprec_bigtens
0800f8f0 g     F .text	00000104 __s2b
080092d8 g     F .text	000000a8 .hidden __floatunsidf
0801005c g     F .text	00000060 __mcmp
080012e8 g     F .text	0000008c distance
080010c4 g     F .text	00000140 spawn_ship
0800df40 g     F .text	00000018 __fp_lock_all
08016268 g     F .text	0000004c alt_ic_irq_enabled
08014b68 g     F .text	0000009c alt_alarm_stop
0835ae10 g     O .bss	00000004 alt_irq_active
08005564 g     F .text	0000002c DummyProbe
00000108 g     F .exceptions	000000d4 alt_irq_handler
08358028 g     O .rwdata	00000028 alt_dev_null
08003fe4 g     F .text	000000a0 mousePoll
08000cc4 g     F .text	000001e0 push_scene
08004468 g     F .text	00000024 Vbus_power
08015f24 g     F .text	00000020 alt_dcache_flush_all
0800f9f4 g     F .text	00000068 __hi0bits
080004d4 g     F .text	00000060 start_fade
08009258 g     F .text	00000080 .hidden __fixdfsi
08000258 g     F .text	00000158 slow_down
08359288 g       *ABS*	00000000 __ram_rwdata_end
0835926c g     O .rwdata	00000008 alt_dev_list
08014d78 g     F .text	00000100 write
08006b3c g     F .text	000000bc .hidden __gtsf2
08357754 g       *ABS*	00000000 __ram_rodata_end
0835addd g     O .bss	00000001 usb_error
0801448c g     F .text	000000b8 fstat
08014140 g     F .text	000000f4 .hidden __ledf2
0800fdd4 g     F .text	00000140 __pow5mult
080110e8 g     F .text	0000150c ___vfiprintf_internal_r
0835ade8 g     O .bss	00000004 __nlocale_changed
080061b4 g     F .text	00000058 .hidden __umodsi3
084870b0 g       *ABS*	00000000 end
08005770 g     F .text	00000024 is_vblank
080150ac g     F .text	000000c0 altera_avalon_jtag_uart_init
000001dc g     F .exceptions	00000060 alt_instruction_exception_entry
08004ab4 g     F .text	0000017c XferDispatchPkt
080031d4 g     F .text	00000088 new_mouse
08016e38 g       *ABS*	00000000 __CTOR_LIST__
0c000000 g       *ABS*	00000000 __alt_stack_pointer
08015c24 g     F .text	0000007c alt_avalon_timer_sc_init
08009638 g     F .text	00000064 .hidden __clzsi2
0801578c g     F .text	00000224 altera_avalon_jtag_uart_write
08000534 g     F .text	00000070 is_fade_done
0800df30 g     F .text	00000004 __sfp_lock_acquire
0800f498 g     F .text	000000e4 memchr
08009b60 g     F .text	000022dc ___vfprintf_internal_r
080047d8 g     F .text	00000034 MaxGpxHandler
08001aa8 g     F .text	00000024 gdu_is_running
0800e094 g     F .text	00000310 _free_r
08005720 g     F .text	00000050 get_frame
0800ea7c g     F .text	00000010 __locale_mb_cur_max
0800325c g     F .text	00000210 poll_mouse
08016c84 g     F .text	00000180 __call_exitprocs
0835ade4 g     O .bss	00000004 __mlocale_changed
08359258 g     O .rwdata	00000004 __malloc_sbrk_base
08000000 g     F .text	0000003c _start
0835ae08 g     O .bss	00000004 _alt_tick_rate
08004338 g     F .text	00000090 MAXbytes_rd
08009a64 g     F .text	00000064 rand
0800ff14 g     F .text	00000148 __lshift
080159b0 g     F .text	000001fc alt_avalon_spi_command
0835ae0c g     O .bss	00000004 _alt_nticks
08014930 g     F .text	00000104 read
08014ee4 g     F .text	00000064 alt_sys_init
08007644 g     F .text	00000124 .hidden __floatsisf
08486f68 g     O .bss	00000048 devtable
08001b1c g     F .text	00000030 gdu_set_frame
08016b6c g     F .text	00000118 __register_exitproc
08003b9c g     F .text	00000408 HIDKProbe
0835ae28 g     O .bss	00000018 msd_ep
080005a4 g     F .text	00000114 show_fade
08002894 g     F .text	00000648 run_title_screen
0800fb48 g     F .text	0000028c __multiply
08015418 g     F .text	00000068 altera_avalon_jtag_uart_close
08004dc0 g     F .text	00000098 USB_init
08486e68 g     O .bss	00000100 bigbuf
0800620c g     F .text	00000028 .hidden __mulsi3
08357754 g       *ABS*	00000000 __ram_rwdata_start
08016e38 g       *ABS*	00000000 __ram_rodata_start
08486e40 g     O .bss	00000028 __malloc_current_mallinfo
08001248 g     F .text	000000a0 isqrt
0835add4 g     O .bss	00000001 last_usb_task_state
08010428 g     F .text	0000014c __d2b
0835adcc g     O .bss	00000008 dev0ep
08014f48 g     F .text	00000060 altera_avalon_jtag_uart_read_fd
08016944 g     F .text	000000c4 alt_get_fd
08015dcc g     F .text	00000158 alt_busy_sleep
080054c8 g     F .text	00000038 MSDEventHandler
0801272c g     F .text	00000054 _close_r
08001a68 g     F .text	00000040 gdu_run
08016af0 g     F .text	0000007c memcmp
08015008 g     F .text	00000050 altera_avalon_jtag_uart_close_fd
084870b0 g       *ABS*	00000000 __alt_stack_base
08015058 g     F .text	00000054 altera_avalon_jtag_uart_ioctl_fd
080059c0 g     F .text	0000009c .hidden __floatundisf
0800bf14 g     F .text	00000154 __swsetup_r
080136e8 g     F .text	000009d0 .hidden __divdf3
0800ddf0 g     F .text	00000118 __sfp
0801068c g     F .text	00000078 __copybits
08357c20 g     O .rwdata	00000408 __malloc_av_
0800df3c g     F .text	00000004 __sinit_lock_release
0800552c g     F .text	00000038 CDCEventHandler
080080f0 g     F .text	0000086c .hidden __muldf3
08005590 g     F .text	00000038 DummyEventHandler
08010dbc g     F .text	00000054 __sread
0801683c g     F .text	00000108 alt_find_file
08000ac8 g     F .text	000001c8 allocate_object
08015f80 g     F .text	000000a4 alt_dev_llist_insert
080148ac g     F .text	00000024 __malloc_lock
08014ab8 g     F .text	000000b0 sbrk
0800db34 g     F .text	0000005c _fflush_r
08012780 g     F .text	000000dc _calloc_r
080034ec g     F .text	0000002c enable_master_timer
0835adbc g       *ABS*	00000000 __bss_start
08001c14 g     F .text	00000070 push_sprite
0800448c g     F .text	00000188 MAX_busprobe
0835adca g     O .bss	00000002 hid_device
080097e4 g     F .text	00000128 memset
08002edc g     F .text	0000010c main
080046a8 g     F .text	00000064 MAX3421E_Task
0835ae04 g     O .bss	00000004 alt_envp
0835adec g     O .bss	00000004 __malloc_max_total_mem
08014fa8 g     F .text	00000060 altera_avalon_jtag_uart_write_fd
08012e18 g     F .text	00000018 __swbuf
08009a4c g     F .text	00000018 srand
08005620 g     F .text	00000084 ConvUTF8ToStr
08006bf8 g     F .text	000000c8 .hidden __ltsf2
08010ef0 g     F .text	00000008 __sclose
0c000000 g       *ABS*	00000000 __alt_heap_limit
0801294c g     F .text	00000014 fclose
08009490 g     F .text	000001a8 .hidden __truncdfsf2
0800c290 g     F .text	00001688 _dtoa_r
0800ec8c g     F .text	0000080c _malloc_r
08012f8c g     F .text	00000030 __ascii_wctomb
08359278 g     O .rwdata	00000004 alt_errno
08001acc g     F .text	00000050 gdu_reset
0800e86c g     F .text	000000c4 _fwalk
08000468 g     F .text	0000006c create_fade
08006058 g     F .text	00000084 .hidden __divsi3
08004c30 g     F .text	00000190 XferInTransfer
0800df70 g     F .text	00000124 _malloc_trim_r
080036bc g     F .text	000000d8 is_ready
08016e38 g       *ABS*	00000000 __CTOR_END__
08006cc0 g     F .text	00000430 .hidden __mulsf3
080055e8 g     F .text	00000038 GetDevtable
08010ef8 g     F .text	000000dc strcmp
08001204 g     F .text	00000044 destroy_ship
08016e38 g       *ABS*	00000000 __flash_rodata_start
08016e38 g       *ABS*	00000000 __DTOR_LIST__
08004a40 g     F .text	00000074 XferCtrlND
080140b8 g     F .text	00000088 .hidden __nedf2
080043c8 g     F .text	000000a0 MAX3421E_reset
08001c84 g     F .text	00000068 pop_sprite
08014eac g     F .text	00000038 alt_irq_init
08014a34 g     F .text	00000084 alt_release_fd
08357454 g     O .rodata	00000100 .hidden __clz_tab
0835ade0 g     O .bss	00000004 _PathLocale
08016aa4 g     F .text	00000014 atexit
08006b3c g     F .text	000000bc .hidden __gesf2
080126cc g     F .text	00000060 _write_r
0800eaac g     F .text	00000018 setlocale
08359250 g     O .rwdata	00000004 _impure_ptr
0835adfc g     O .bss	00000004 alt_argc
0800d918 g     F .text	0000021c __sflush_r
08016084 g     F .text	00000060 _do_dtors
0800ea98 g     F .text	00000008 __locale_cjk_lang
08004244 g     F .text	00000098 MAXbytes_wr
00000020 g       .exceptions	00000000 alt_irq_entry
080102b8 g     F .text	00000064 __ulp
0800df58 g     F .text	00000018 __fp_unlock_all
08000ff0 g     F .text	000000d4 ship_count
08359264 g     O .rwdata	00000008 alt_fs_list
08005500 g     F .text	0000002c CDCProbe
00000020 g       *ABS*	00000000 __ram_exceptions_start
0800eac4 g     F .text	0000000c localeconv
080055c8 g     F .text	00000020 GetUsbTaskState
08016104 g     F .text	00000050 alt_ic_isr_register
08359288 g       *ABS*	00000000 _edata
08001b4c g     F .text	000000c8 convert_sprite
08004144 g     F .text	00000038 HIDKEventHandler
084870b0 g       *ABS*	00000000 _end
080008dc g     F .text	000001a0 handle_mouse
0800470c g     F .text	000000cc MaxIntHandler
08012960 g     F .text	00000164 __fputwc
0000023c g       *ABS*	00000000 __ram_exceptions_end
08015480 g     F .text	000000f0 altera_avalon_jtag_uart_ioctl
0800417c g     F .text	00000034 SPI_init
080161dc g     F .text	0000008c alt_ic_irq_disable
08000ea4 g     F .text	00000044 clear_scene
08010e18 g     F .text	0000007c __swrite
0835925c g     O .rwdata	00000004 __malloc_trim_threshold
0800ea8c g     F .text	0000000c __locale_msgcharset
08016ab8 g     F .text	00000038 exit
0800e930 g     F .text	000000c4 _fwalk_reent
080100bc g     F .text	000001fc __mdiff
080060dc g     F .text	00000074 .hidden __modsi3
0c000000 g       *ABS*	00000000 __alt_data_end
00000020 g     F .exceptions	00000000 alt_exception
0800df34 g     F .text	00000004 __sfp_lock_release
08000000 g       *ABS*	00000000 __alt_mem_sdram
080031a4 g     F .text	00000030 init_mouse
080058ec g     F .text	00000060 .hidden __fixunssfsi
0800410c g     F .text	00000038 HIDMEventHandler
08001374 g     F .text	00000188 closest_ship
08000a7c g     F .text	0000004c init_object
08016e04 g     F .text	00000034 _exit
08015ca0 g     F .text	0000012c alt_alarm_start
08013018 g     F .text	0000010c .hidden __muldi3
0800ead0 g     F .text	000001bc __smakebuf_r
08009ac8 g     F .text	00000098 strlen
0801662c g     F .text	0000015c open
08000174 g     F .text	000000e4 cap_velocity
08008014 g     F .text	000000dc .hidden __gedf2
08000870 g     F .text	0000006c mouse_to_game
08359260 g     O .rwdata	00000004 __wctomb
080057ec g     F .text	00000084 setPixel
080110d0 g     F .text	00000018 __sprint_r
080160e4 g     F .text	00000020 alt_icache_flush_all
08016154 g     F .text	00000088 alt_ic_irq_enable
0800be3c g     F .text	0000001c __vfprintf_internal
08003794 g     F .text	00000408 HIDMProbe
08012fbc g     F .text	0000005c _wctomb_r
080003b0 g     F .text	00000070 start_render
080041b0 g     F .text	00000028 SPI_wr
0800895c g     F .text	000008fc .hidden __subdf3
0800fa5c g     F .text	000000b0 __lo0bits
0800003c g     F .text	00000138 update_physics
08359280 g     O .rwdata	00000008 alt_alarm_list
08016024 g     F .text	00000060 _do_ctors
08012ecc g     F .text	000000c0 wcrtomb
0801434c g     F .text	000000d8 close
08006234 g     F .text	000004c8 .hidden __addsf3
080056e4 g     F .text	0000003c set_frame
08014694 g     F .text	00000084 alt_load
08012ae8 g     F .text	00000080 fputwc
0800df38 g     F .text	00000004 __sinit_lock_acquire
0800480c g     F .text	0000014c XferCtrlReq
08001cec g     F .text	00000ba8 run_level1
0800f7a8 g     F .text	00000148 __multadd
0800f780 g     F .text	00000028 _Bfree



Disassembly of section .entry:

00000000 <__reset>:
 * Jump to the _start entry point in the .text section if reset code
 * is allowed or if optimizing for RTL simulation.
 */
#if defined(ALT_ALLOW_CODE_AT_RESET) || defined(ALT_SIM_OPTIMIZE)
    /* Jump to the _start entry point in the .text section. */
    movhi r1, %hi(_start)
   0:	00420034 	movhi	at,2048
    ori r1, r1, %lo(_start)
   4:	08400014 	ori	at,at,0
    jmp r1
   8:	0800683a 	jmp	at
	...

Disassembly of section .exceptions:

00000020 <alt_exception>:

        /* 
         * Switch to the exception stack and save the current stack pointer
         * in memory. Uses the et register as a scratch register.
         */
        movhi et, %hi(__alt_exception_stack_pointer - 80)
  20:	06000034 	movhi	et,0
        ori   et, et, %lo(__alt_exception_stack_pointer - 80) 
  24:	c603ec14 	ori	et,et,4016
        stw   sp, 76(et)
  28:	c6c01315 	stw	sp,76(et)
        mov   sp, et
  2c:	c037883a 	mov	sp,et
         * documentation for details).
         *
         * Leave a gap in the stack frame at 4(sp) for the muldiv handler to
         * store zero into.
         */
        stw   ra,  0(sp)
  30:	dfc00015 	stw	ra,0(sp)
        stw   r1,   8(sp)
  34:	d8400215 	stw	at,8(sp)
        stw   r2,  12(sp)
  38:	d8800315 	stw	r2,12(sp)
        stw   r3,  16(sp)
  3c:	d8c00415 	stw	r3,16(sp)
        stw   r4,  20(sp)
  40:	d9000515 	stw	r4,20(sp)
        stw   r5,  24(sp)
  44:	d9400615 	stw	r5,24(sp)
        stw   r6,  28(sp)
  48:	d9800715 	stw	r6,28(sp)
        stw   r7,  32(sp)
  4c:	d9c00815 	stw	r7,32(sp)
        rdctl r5, estatus   /* Read early to avoid usage stall */
  50:	000b307a 	rdctl	r5,estatus
        stw   r8,  36(sp)
  54:	da000915 	stw	r8,36(sp)
        stw   r9,  40(sp)
  58:	da400a15 	stw	r9,40(sp)
        stw   r10, 44(sp)
  5c:	da800b15 	stw	r10,44(sp)
        stw   r11, 48(sp)
  60:	dac00c15 	stw	r11,48(sp)
        stw   r12, 52(sp)
  64:	db000d15 	stw	r12,52(sp)
        stw   r13, 56(sp)
  68:	db400e15 	stw	r13,56(sp)
        stw   r14, 60(sp)
  6c:	db800f15 	stw	r14,60(sp)
        stw   r15, 64(sp)
  70:	dbc01015 	stw	r15,64(sp)
        /*
         * ea-4 contains the address of the instruction being executed
         * when the exception occured. For interrupt exceptions, we will
         * will be re-issue the isntruction. Store it in 72(sp)
         */
        stw   r5,  68(sp)  /* estatus */
  74:	d9401115 	stw	r5,68(sp)
        addi  r15, ea, -4  /* instruction that caused exception */
  78:	ebffff04 	addi	r15,ea,-4
        stw   r15,  72(sp)
  7c:	dbc01215 	stw	r15,72(sp)
#else
        /*
         * Test to see if the exception was a software exception or caused 
         * by an external interrupt, and vector accordingly.
         */
        rdctl r4, ipending
  80:	0009313a 	rdctl	r4,ipending
        andi  r2, r5, 1
  84:	2880004c 	andi	r2,r5,1
        beq   r2, zero, .Lnot_irq
  88:	10000326 	beq	r2,zero,98 <alt_exception+0x78>
        beq   r4, zero, .Lnot_irq
  8c:	20000226 	beq	r4,zero,98 <alt_exception+0x78>
        /*
         * Now that all necessary registers have been preserved, call 
         * alt_irq_handler() to process the interrupts.
         */

        call alt_irq_handler
  90:	00001080 	call	108 <alt_irq_handler>

        .section .exceptions.irqreturn, "xa"

        br    .Lexception_exit
  94:	00000706 	br	b4 <alt_exception+0x94>
         * upon completion, so we write ea (address of instruction *after*
         * the one where the exception occured) into 72(sp). The actual
         * instruction that caused the exception is written in r2, which these
         * handlers will utilize.
         */
        stw ea, 72(sp) /* EA is PC+4 so will skip over instruction causing exception */
  98:	df401215 	stw	ea,72(sp)
.Lunknown_16bit:
        addi.n r4, r4, 2 /* Need PC+2 to skip over instruction causing exception */
        stw r4, 72(sp)

#else /* CDX is not Enabled and all instructions are 32bits */
        ldw r2, -4(ea) /* Instruction value that caused exception */
  9c:	e8bfff17 	ldw	r2,-4(ea)
         * debugger is present) or go into an infinite loop since the
         * handling behavior is undefined; in that case we will not return here.
         */

        /* Load exception-causing address as first argument (r4) */
        addi   r4, ea, -4
  a0:	e93fff04 	addi	r4,ea,-4

        /* Call the instruction-exception entry */
        call   alt_instruction_exception_entry
  a4:	00001dc0 	call	1dc <alt_instruction_exception_entry>
         * instruction
         *
         * Return code was 0: Skip. The instruction after the exception is
         * already stored in 72(sp).
         */
        bne   r2, r0, .Lexception_exit
  a8:	1000021e 	bne	r2,zero,b4 <alt_exception+0x94>

        /*
         * Otherwise, modify 72(sp) to re-issue the instruction that caused the
         * exception.
         */
        addi  r15, ea, -4  /* instruction that caused exception */
  ac:	ebffff04 	addi	r15,ea,-4
        stw   r15,  72(sp)
  b0:	dbc01215 	stw	r15,72(sp)
        /* 
         * Restore the saved registers, so that all general purpose registers 
         * have been restored to their state at the time the interrupt occured.
         */

        ldw   r5,  68(sp)
  b4:	d9401117 	ldw	r5,68(sp)
        ldw   ea,  72(sp)  /* This becomes the PC once eret is executed */
  b8:	df401217 	ldw	ea,72(sp)
        ldw   ra,   0(sp)
  bc:	dfc00017 	ldw	ra,0(sp)

        wrctl estatus, r5
  c0:	2801707a 	wrctl	estatus,r5

        ldw   r1,   8(sp)
  c4:	d8400217 	ldw	at,8(sp)
        ldw   r2,  12(sp)
  c8:	d8800317 	ldw	r2,12(sp)
        ldw   r3,  16(sp)
  cc:	d8c00417 	ldw	r3,16(sp)
        ldw   r4,  20(sp)
  d0:	d9000517 	ldw	r4,20(sp)
        ldw   r5,  24(sp)
  d4:	d9400617 	ldw	r5,24(sp)
        ldw   r6,  28(sp)
  d8:	d9800717 	ldw	r6,28(sp)
        ldw   r7,  32(sp)
  dc:	d9c00817 	ldw	r7,32(sp)

#if defined(ALT_EXCEPTION_STACK) && defined(ALT_STACK_CHECK)
        ldw   et, %gprel(alt_exception_old_stack_limit)(gp)
#endif

        ldw   r8,  36(sp)
  e0:	da000917 	ldw	r8,36(sp)
        ldw   r9,  40(sp)
  e4:	da400a17 	ldw	r9,40(sp)
        ldw   r10, 44(sp)
  e8:	da800b17 	ldw	r10,44(sp)
        ldw   r11, 48(sp)
  ec:	dac00c17 	ldw	r11,48(sp)
        ldw   r12, 52(sp)
  f0:	db000d17 	ldw	r12,52(sp)
        ldw   r13, 56(sp)
  f4:	db400e17 	ldw	r13,56(sp)
        ldw   r14, 60(sp)
  f8:	db800f17 	ldw	r14,60(sp)
        ldw   r15, 64(sp)
  fc:	dbc01017 	ldw	r15,64(sp)
#ifdef ALT_EXCEPTION_STACK
#ifdef ALT_STACK_CHECK
        stw   et, %gprel(alt_stack_limit_value)(gp)
        stw   zero, %gprel(alt_exception_old_stack_limit)(gp)
#endif /* ALT_STACK_CHECK */
        ldw   sp,  76(sp)
 100:	dec01317 	ldw	sp,76(sp)

        /*
         * Return to the interrupted instruction.
         */

        eret
 104:	ef80083a 	eret

00000108 <alt_irq_handler>:
 * instruction is present if the macro ALT_CI_INTERRUPT_VECTOR defined.
 */

void alt_irq_handler (void) __attribute__ ((section (".exceptions")));
void alt_irq_handler (void)
{
 108:	defff904 	addi	sp,sp,-28
 10c:	dfc00615 	stw	ra,24(sp)
 110:	df000515 	stw	fp,20(sp)
 114:	df000504 	addi	fp,sp,20
  
  /*
   * Notify the operating system that we are at interrupt level.
   */ 
  
  ALT_OS_INT_ENTER();
 118:	0001883a 	nop
#ifndef NIOS2_EIC_PRESENT
static ALT_INLINE alt_u32 ALT_ALWAYS_INLINE alt_irq_pending (void)
{
  alt_u32 active;

  NIOS2_READ_IPENDING (active);
 11c:	0005313a 	rdctl	r2,ipending
 120:	e0bffe15 	stw	r2,-8(fp)

  return active;
 124:	e0bffe17 	ldw	r2,-8(fp)
   * Consider the case where the high priority interupt is asserted during
   * the interrupt entry sequence for a lower priority interrupt to see why
   * this is the case.
   */

  active = alt_irq_pending ();
 128:	e0bffb15 	stw	r2,-20(fp)

  do
  {
    i = 0;
 12c:	e03ffd15 	stw	zero,-12(fp)
    mask = 1;
 130:	00800044 	movi	r2,1
 134:	e0bffc15 	stw	r2,-16(fp)
     * called to clear the interrupt condition.
     */

    do
    {
      if (active & mask)
 138:	e0fffb17 	ldw	r3,-20(fp)
 13c:	e0bffc17 	ldw	r2,-16(fp)
 140:	1884703a 	and	r2,r3,r2
 144:	10001426 	beq	r2,zero,198 <alt_irq_handler+0x90>
      { 
#ifdef ALT_ENHANCED_INTERRUPT_API_PRESENT
        alt_irq[i].handler(alt_irq[i].context); 
 148:	00821234 	movhi	r2,2120
 14c:	109bec04 	addi	r2,r2,28592
 150:	e0fffd17 	ldw	r3,-12(fp)
 154:	180690fa 	slli	r3,r3,3
 158:	10c5883a 	add	r2,r2,r3
 15c:	10c00017 	ldw	r3,0(r2)
 160:	00821234 	movhi	r2,2120
 164:	109bec04 	addi	r2,r2,28592
 168:	e13ffd17 	ldw	r4,-12(fp)
 16c:	200890fa 	slli	r4,r4,3
 170:	1105883a 	add	r2,r2,r4
 174:	10800104 	addi	r2,r2,4
 178:	10800017 	ldw	r2,0(r2)
 17c:	1009883a 	mov	r4,r2
 180:	183ee83a 	callr	r3
#else
        alt_irq[i].handler(alt_irq[i].context, i); 
#endif
        break;
 184:	0001883a 	nop
#ifndef NIOS2_EIC_PRESENT
static ALT_INLINE alt_u32 ALT_ALWAYS_INLINE alt_irq_pending (void)
{
  alt_u32 active;

  NIOS2_READ_IPENDING (active);
 188:	0005313a 	rdctl	r2,ipending
 18c:	e0bfff15 	stw	r2,-4(fp)

  return active;
 190:	e0bfff17 	ldw	r2,-4(fp)
 194:	00000706 	br	1b4 <alt_irq_handler+0xac>
      }
      mask <<= 1;
 198:	e0bffc17 	ldw	r2,-16(fp)
 19c:	1085883a 	add	r2,r2,r2
 1a0:	e0bffc15 	stw	r2,-16(fp)
      i++;
 1a4:	e0bffd17 	ldw	r2,-12(fp)
 1a8:	10800044 	addi	r2,r2,1
 1ac:	e0bffd15 	stw	r2,-12(fp)

    } while (1);
 1b0:	003fe106 	br	138 <__alt_data_end+0xf4000138>

    active = alt_irq_pending ();
 1b4:	e0bffb15 	stw	r2,-20(fp)
    
  } while (active);
 1b8:	e0bffb17 	ldw	r2,-20(fp)
 1bc:	103fdb1e 	bne	r2,zero,12c <__alt_data_end+0xf400012c>

  /*
   * Notify the operating system that interrupt processing is complete.
   */ 

  ALT_OS_INT_EXIT();
 1c0:	0001883a 	nop
}
 1c4:	0001883a 	nop
 1c8:	e037883a 	mov	sp,fp
 1cc:	dfc00117 	ldw	ra,4(sp)
 1d0:	df000017 	ldw	fp,0(sp)
 1d4:	dec00204 	addi	sp,sp,8
 1d8:	f800283a 	ret

000001dc <alt_instruction_exception_entry>:
 * that handler if it has been registered. Absent a handler, it will
 * break break or hang as discussed below.
 */
int 
alt_instruction_exception_entry (alt_u32 exception_pc)
{
 1dc:	defffb04 	addi	sp,sp,-20
 1e0:	dfc00415 	stw	ra,16(sp)
 1e4:	df000315 	stw	fp,12(sp)
 1e8:	df000304 	addi	fp,sp,12
 1ec:	e13fff15 	stw	r4,-4(fp)
  cause = ( (cause & NIOS2_EXCEPTION_REG_CAUSE_MASK) >>
              NIOS2_EXCEPTION_REG_CAUSE_OFST );

  NIOS2_READ_BADADDR(badaddr);
#else
  cause = NIOS2_EXCEPTION_CAUSE_NOT_PRESENT;
 1f0:	00bfffc4 	movi	r2,-1
 1f4:	e0bffd15 	stw	r2,-12(fp)
  badaddr = 0;
 1f8:	e03ffe15 	stw	zero,-8(fp)
#endif /* NIOS2_HAS_EXTRA_EXCEPTION_INFO */

  if(alt_instruction_exception_handler) {
 1fc:	d0a6f917 	ldw	r2,-25628(gp)
 200:	10000726 	beq	r2,zero,220 <alt_instruction_exception_entry+0x44>
     * Call handler. Its return value indicates whether the exception-causing
     * instruction should be re-issued. The code that called us,
     * alt_eceptions_entry.S, will look at this value and adjust the ea
     * register as necessary
     */
    return alt_instruction_exception_handler(cause, exception_pc, badaddr);
 204:	d0a6f917 	ldw	r2,-25628(gp)
 208:	e0fffd17 	ldw	r3,-12(fp)
 20c:	e1bffe17 	ldw	r6,-8(fp)
 210:	e17fff17 	ldw	r5,-4(fp)
 214:	1809883a 	mov	r4,r3
 218:	103ee83a 	callr	r2
 21c:	00000206 	br	228 <alt_instruction_exception_entry+0x4c>
   *    (a peripheral which negates its interrupt output before its
   *    interrupt handler has been executed will cause spurious interrupts)
   */
  else {
#ifdef NIOS2_HAS_DEBUG_STUB
    NIOS2_BREAK();
 220:	003da03a 	break	0
      ;
#endif /* NIOS2_HAS_DEBUG_STUB */
  }

  /* We should not get here. Remove compiler warning. */
  return NIOS2_EXCEPTION_RETURN_REISSUE_INST;
 224:	0005883a 	mov	r2,zero
}
 228:	e037883a 	mov	sp,fp
 22c:	dfc00117 	ldw	ra,4(sp)
 230:	df000017 	ldw	fp,0(sp)
 234:	dec00204 	addi	sp,sp,8
 238:	f800283a 	ret

Disassembly of section .text:

08000000 <_start>:

    /*
     * Now that the caches are initialized, set up the stack pointer and global pointer.
     * The values provided by the linker are assumed to be correctly aligned.
     */
    movhi sp, %hi(__alt_stack_pointer)
 8000000:	06c30034 	movhi	sp,3072
    ori sp, sp, %lo(__alt_stack_pointer)
 8000004:	dec00014 	ori	sp,sp,0
    movhi gp, %hi(_gp)
 8000008:	06820db4 	movhi	gp,2102
    ori gp, gp, %lo(_gp)
 800000c:	d6848c14 	ori	gp,gp,4656
 */
#ifndef ALT_SIM_OPTIMIZE
    /* Log that the BSS is about to be cleared. */
    ALT_LOG_PUTS(alt_log_msg_bss)

    movhi r2, %hi(__bss_start)
 8000010:	00820d74 	movhi	r2,2101
    ori r2, r2, %lo(__bss_start)
 8000014:	10ab6f14 	ori	r2,r2,44476

    movhi r3, %hi(__bss_end)
 8000018:	00c21234 	movhi	r3,2120
    ori r3, r3, %lo(__bss_end)
 800001c:	18dc2c14 	ori	r3,r3,28848

    beq r2, r3, 1f
 8000020:	10c00326 	beq	r2,r3,8000030 <_start+0x30>

0:
    stw zero, (r2)
 8000024:	10000015 	stw	zero,0(r2)
    addi r2, r2, 4
 8000028:	10800104 	addi	r2,r2,4
    bltu r2, r3, 0b
 800002c:	10fffd36 	bltu	r2,r3,8000024 <__alt_data_end+0xfc000024>
     * section aren't defined until alt_load() has been called).
     */
    mov   et, zero
#endif

    call alt_load
 8000030:	80146940 	call	8014694 <alt_load>

    /* Log that alt_main is about to be called. */
    ALT_LOG_PUTS(alt_log_msg_alt_main)

    /* Call the C entry point. It should never return. */
    call alt_main
 8000034:	80148300 	call	8014830 <alt_main>

08000038 <alt_after_alt_main>:

    /* Wait in infinite loop in case alt_main does return. */
alt_after_alt_main:
    br alt_after_alt_main
 8000038:	003fff06 	br	8000038 <__alt_data_end+0xfc000038>

0800003c <update_physics>:
#include "common.h"
#include "math.h"

void update_physics(physics_t* phys, float dt) {
 800003c:	defffb04 	addi	sp,sp,-20
 8000040:	dfc00415 	stw	ra,16(sp)
 8000044:	df000315 	stw	fp,12(sp)
 8000048:	dc000215 	stw	r16,8(sp)
 800004c:	df000304 	addi	fp,sp,12
 8000050:	e13ffd15 	stw	r4,-12(fp)
 8000054:	e17ffe15 	stw	r5,-8(fp)
    phys->v.x += phys->a.x * dt;
 8000058:	e0bffd17 	ldw	r2,-12(fp)
 800005c:	14000217 	ldw	r16,8(r2)
 8000060:	e0bffd17 	ldw	r2,-12(fp)
 8000064:	10c00417 	ldw	r3,16(r2)
 8000068:	e17ffe17 	ldw	r5,-8(fp)
 800006c:	1809883a 	mov	r4,r3
 8000070:	8006cc00 	call	8006cc0 <__mulsf3>
 8000074:	1007883a 	mov	r3,r2
 8000078:	1805883a 	mov	r2,r3
 800007c:	100b883a 	mov	r5,r2
 8000080:	8009883a 	mov	r4,r16
 8000084:	80062340 	call	8006234 <__addsf3>
 8000088:	1009883a 	mov	r4,r2
 800008c:	2007883a 	mov	r3,r4
 8000090:	e0bffd17 	ldw	r2,-12(fp)
 8000094:	10c00215 	stw	r3,8(r2)
    phys->v.y += phys->a.y * dt;
 8000098:	e0bffd17 	ldw	r2,-12(fp)
 800009c:	14000317 	ldw	r16,12(r2)
 80000a0:	e0bffd17 	ldw	r2,-12(fp)
 80000a4:	10c00517 	ldw	r3,20(r2)
 80000a8:	e17ffe17 	ldw	r5,-8(fp)
 80000ac:	1809883a 	mov	r4,r3
 80000b0:	8006cc00 	call	8006cc0 <__mulsf3>
 80000b4:	1007883a 	mov	r3,r2
 80000b8:	1805883a 	mov	r2,r3
 80000bc:	100b883a 	mov	r5,r2
 80000c0:	8009883a 	mov	r4,r16
 80000c4:	80062340 	call	8006234 <__addsf3>
 80000c8:	1009883a 	mov	r4,r2
 80000cc:	2007883a 	mov	r3,r4
 80000d0:	e0bffd17 	ldw	r2,-12(fp)
 80000d4:	10c00315 	stw	r3,12(r2)
    phys->p.x += phys->v.x * dt;
 80000d8:	e0bffd17 	ldw	r2,-12(fp)
 80000dc:	14000017 	ldw	r16,0(r2)
 80000e0:	e0bffd17 	ldw	r2,-12(fp)
 80000e4:	10c00217 	ldw	r3,8(r2)
 80000e8:	e17ffe17 	ldw	r5,-8(fp)
 80000ec:	1809883a 	mov	r4,r3
 80000f0:	8006cc00 	call	8006cc0 <__mulsf3>
 80000f4:	1007883a 	mov	r3,r2
 80000f8:	1805883a 	mov	r2,r3
 80000fc:	100b883a 	mov	r5,r2
 8000100:	8009883a 	mov	r4,r16
 8000104:	80062340 	call	8006234 <__addsf3>
 8000108:	1009883a 	mov	r4,r2
 800010c:	2007883a 	mov	r3,r4
 8000110:	e0bffd17 	ldw	r2,-12(fp)
 8000114:	10c00015 	stw	r3,0(r2)
    phys->p.y += phys->v.y * dt;
 8000118:	e0bffd17 	ldw	r2,-12(fp)
 800011c:	14000117 	ldw	r16,4(r2)
 8000120:	e0bffd17 	ldw	r2,-12(fp)
 8000124:	10c00317 	ldw	r3,12(r2)
 8000128:	e17ffe17 	ldw	r5,-8(fp)
 800012c:	1809883a 	mov	r4,r3
 8000130:	8006cc00 	call	8006cc0 <__mulsf3>
 8000134:	1007883a 	mov	r3,r2
 8000138:	1805883a 	mov	r2,r3
 800013c:	100b883a 	mov	r5,r2
 8000140:	8009883a 	mov	r4,r16
 8000144:	80062340 	call	8006234 <__addsf3>
 8000148:	1009883a 	mov	r4,r2
 800014c:	2007883a 	mov	r3,r4
 8000150:	e0bffd17 	ldw	r2,-12(fp)
 8000154:	10c00115 	stw	r3,4(r2)
}
 8000158:	0001883a 	nop
 800015c:	e6ffff04 	addi	sp,fp,-4
 8000160:	dfc00217 	ldw	ra,8(sp)
 8000164:	df000117 	ldw	fp,4(sp)
 8000168:	dc000017 	ldw	r16,0(sp)
 800016c:	dec00304 	addi	sp,sp,12
 8000170:	f800283a 	ret

08000174 <cap_velocity>:

void cap_velocity(physics_t* phys, float max_v) {
 8000174:	defffc04 	addi	sp,sp,-16
 8000178:	dfc00315 	stw	ra,12(sp)
 800017c:	df000215 	stw	fp,8(sp)
 8000180:	df000204 	addi	fp,sp,8
 8000184:	e13ffe15 	stw	r4,-8(fp)
 8000188:	e17fff15 	stw	r5,-4(fp)
    if (phys->v.x > max_v)
 800018c:	e0bffe17 	ldw	r2,-8(fp)
 8000190:	10c00217 	ldw	r3,8(r2)
 8000194:	e17fff17 	ldw	r5,-4(fp)
 8000198:	1809883a 	mov	r4,r3
 800019c:	8006b3c0 	call	8006b3c <__gesf2>
 80001a0:	0080040e 	bge	zero,r2,80001b4 <cap_velocity+0x40>
        phys->v.x = max_v;
 80001a4:	e0bffe17 	ldw	r2,-8(fp)
 80001a8:	e0ffff17 	ldw	r3,-4(fp)
 80001ac:	10c00215 	stw	r3,8(r2)
 80001b0:	00000c06 	br	80001e4 <cap_velocity+0x70>
    else if (phys->v.x < -max_v)
 80001b4:	e0bffe17 	ldw	r2,-8(fp)
 80001b8:	10c00217 	ldw	r3,8(r2)
 80001bc:	e0bfff17 	ldw	r2,-4(fp)
 80001c0:	10a0003c 	xorhi	r2,r2,32768
 80001c4:	100b883a 	mov	r5,r2
 80001c8:	1809883a 	mov	r4,r3
 80001cc:	8006bf80 	call	8006bf8 <__lesf2>
 80001d0:	1000040e 	bge	r2,zero,80001e4 <cap_velocity+0x70>
        phys->v.x = -max_v;
 80001d4:	e0bfff17 	ldw	r2,-4(fp)
 80001d8:	10e0003c 	xorhi	r3,r2,32768
 80001dc:	e0bffe17 	ldw	r2,-8(fp)
 80001e0:	10c00215 	stw	r3,8(r2)
    if (phys->v.y > max_v)
 80001e4:	e0bffe17 	ldw	r2,-8(fp)
 80001e8:	10c00317 	ldw	r3,12(r2)
 80001ec:	e17fff17 	ldw	r5,-4(fp)
 80001f0:	1809883a 	mov	r4,r3
 80001f4:	8006b3c0 	call	8006b3c <__gesf2>
 80001f8:	0080040e 	bge	zero,r2,800020c <cap_velocity+0x98>
        phys->v.y = max_v;
 80001fc:	e0bffe17 	ldw	r2,-8(fp)
 8000200:	e0ffff17 	ldw	r3,-4(fp)
 8000204:	10c00315 	stw	r3,12(r2)
    else if (phys->v.y < -max_v)
        phys->v.y = -max_v;
}
 8000208:	00000d06 	br	8000240 <cap_velocity+0xcc>
        phys->v.x = max_v;
    else if (phys->v.x < -max_v)
        phys->v.x = -max_v;
    if (phys->v.y > max_v)
        phys->v.y = max_v;
    else if (phys->v.y < -max_v)
 800020c:	e0bffe17 	ldw	r2,-8(fp)
 8000210:	10c00317 	ldw	r3,12(r2)
 8000214:	e0bfff17 	ldw	r2,-4(fp)
 8000218:	10a0003c 	xorhi	r2,r2,32768
 800021c:	100b883a 	mov	r5,r2
 8000220:	1809883a 	mov	r4,r3
 8000224:	8006bf80 	call	8006bf8 <__lesf2>
 8000228:	10000116 	blt	r2,zero,8000230 <cap_velocity+0xbc>
        phys->v.y = -max_v;
}
 800022c:	00000406 	br	8000240 <cap_velocity+0xcc>
    else if (phys->v.x < -max_v)
        phys->v.x = -max_v;
    if (phys->v.y > max_v)
        phys->v.y = max_v;
    else if (phys->v.y < -max_v)
        phys->v.y = -max_v;
 8000230:	e0bfff17 	ldw	r2,-4(fp)
 8000234:	10e0003c 	xorhi	r3,r2,32768
 8000238:	e0bffe17 	ldw	r2,-8(fp)
 800023c:	10c00315 	stw	r3,12(r2)
}
 8000240:	0001883a 	nop
 8000244:	e037883a 	mov	sp,fp
 8000248:	dfc00117 	ldw	ra,4(sp)
 800024c:	df000017 	ldw	fp,0(sp)
 8000250:	dec00204 	addi	sp,sp,8
 8000254:	f800283a 	ret

08000258 <slow_down>:

void slow_down(physics_t* phys, float accel) {
 8000258:	defffb04 	addi	sp,sp,-20
 800025c:	dfc00415 	stw	ra,16(sp)
 8000260:	df000315 	stw	fp,12(sp)
 8000264:	df000304 	addi	fp,sp,12
 8000268:	e13ffe15 	stw	r4,-8(fp)
 800026c:	e17fff15 	stw	r5,-4(fp)
    float a = fabs(accel);
 8000270:	e0ffff17 	ldw	r3,-4(fp)
 8000274:	00a00034 	movhi	r2,32768
 8000278:	10bfffc4 	addi	r2,r2,-1
 800027c:	1884703a 	and	r2,r3,r2
 8000280:	e0bffd15 	stw	r2,-12(fp)
    if (fabsf(phys->v.x) < 1) {
 8000284:	e0bffe17 	ldw	r2,-8(fp)
 8000288:	10c00217 	ldw	r3,8(r2)
 800028c:	00a00034 	movhi	r2,32768
 8000290:	10bfffc4 	addi	r2,r2,-1
 8000294:	1884703a 	and	r2,r3,r2
 8000298:	014fe034 	movhi	r5,16256
 800029c:	1009883a 	mov	r4,r2
 80002a0:	8006bf80 	call	8006bf8 <__lesf2>
 80002a4:	1000050e 	bge	r2,zero,80002bc <slow_down+0x64>
        phys->v.x = 0;
 80002a8:	e0bffe17 	ldw	r2,-8(fp)
 80002ac:	10000215 	stw	zero,8(r2)
        phys->a.x = 0;
 80002b0:	e0bffe17 	ldw	r2,-8(fp)
 80002b4:	10000415 	stw	zero,16(r2)
 80002b8:	00001406 	br	800030c <slow_down+0xb4>
    } else {
        if (phys->v.x > 0)
 80002bc:	e0bffe17 	ldw	r2,-8(fp)
 80002c0:	10c00217 	ldw	r3,8(r2)
 80002c4:	000b883a 	mov	r5,zero
 80002c8:	1809883a 	mov	r4,r3
 80002cc:	8006b3c0 	call	8006b3c <__gesf2>
 80002d0:	0080050e 	bge	zero,r2,80002e8 <slow_down+0x90>
            phys->a.x = -a;
 80002d4:	e0bffd17 	ldw	r2,-12(fp)
 80002d8:	10e0003c 	xorhi	r3,r2,32768
 80002dc:	e0bffe17 	ldw	r2,-8(fp)
 80002e0:	10c00415 	stw	r3,16(r2)
 80002e4:	00000906 	br	800030c <slow_down+0xb4>
        else if (phys->v.x < 0)
 80002e8:	e0bffe17 	ldw	r2,-8(fp)
 80002ec:	10c00217 	ldw	r3,8(r2)
 80002f0:	000b883a 	mov	r5,zero
 80002f4:	1809883a 	mov	r4,r3
 80002f8:	8006bf80 	call	8006bf8 <__lesf2>
 80002fc:	1000030e 	bge	r2,zero,800030c <slow_down+0xb4>
            phys->a.x = a;
 8000300:	e0bffe17 	ldw	r2,-8(fp)
 8000304:	e0fffd17 	ldw	r3,-12(fp)
 8000308:	10c00415 	stw	r3,16(r2)
    }

    if (fabsf(phys->v.y) < 1) {
 800030c:	e0bffe17 	ldw	r2,-8(fp)
 8000310:	10c00317 	ldw	r3,12(r2)
 8000314:	00a00034 	movhi	r2,32768
 8000318:	10bfffc4 	addi	r2,r2,-1
 800031c:	1884703a 	and	r2,r3,r2
 8000320:	014fe034 	movhi	r5,16256
 8000324:	1009883a 	mov	r4,r2
 8000328:	8006bf80 	call	8006bf8 <__lesf2>
 800032c:	1000050e 	bge	r2,zero,8000344 <slow_down+0xec>
        phys->v.y = 0;
 8000330:	e0bffe17 	ldw	r2,-8(fp)
 8000334:	10000315 	stw	zero,12(r2)
        phys->a.y = 0;
 8000338:	e0bffe17 	ldw	r2,-8(fp)
 800033c:	10000515 	stw	zero,20(r2)
        if (phys->v.y > 0)
            phys->a.y = -a;
        else if (phys->v.y < 0)
            phys->a.y = a;
    }
 8000340:	00001506 	br	8000398 <slow_down+0x140>

    if (fabsf(phys->v.y) < 1) {
        phys->v.y = 0;
        phys->a.y = 0;
    } else {
        if (phys->v.y > 0)
 8000344:	e0bffe17 	ldw	r2,-8(fp)
 8000348:	10c00317 	ldw	r3,12(r2)
 800034c:	000b883a 	mov	r5,zero
 8000350:	1809883a 	mov	r4,r3
 8000354:	8006b3c0 	call	8006b3c <__gesf2>
 8000358:	0080050e 	bge	zero,r2,8000370 <slow_down+0x118>
            phys->a.y = -a;
 800035c:	e0bffd17 	ldw	r2,-12(fp)
 8000360:	10e0003c 	xorhi	r3,r2,32768
 8000364:	e0bffe17 	ldw	r2,-8(fp)
 8000368:	10c00515 	stw	r3,20(r2)
        else if (phys->v.y < 0)
            phys->a.y = a;
    }
 800036c:	00000a06 	br	8000398 <slow_down+0x140>
        phys->v.y = 0;
        phys->a.y = 0;
    } else {
        if (phys->v.y > 0)
            phys->a.y = -a;
        else if (phys->v.y < 0)
 8000370:	e0bffe17 	ldw	r2,-8(fp)
 8000374:	10c00317 	ldw	r3,12(r2)
 8000378:	000b883a 	mov	r5,zero
 800037c:	1809883a 	mov	r4,r3
 8000380:	8006bf80 	call	8006bf8 <__lesf2>
 8000384:	10000116 	blt	r2,zero,800038c <slow_down+0x134>
            phys->a.y = a;
    }
 8000388:	00000306 	br	8000398 <slow_down+0x140>
        phys->a.y = 0;
    } else {
        if (phys->v.y > 0)
            phys->a.y = -a;
        else if (phys->v.y < 0)
            phys->a.y = a;
 800038c:	e0bffe17 	ldw	r2,-8(fp)
 8000390:	e0fffd17 	ldw	r3,-12(fp)
 8000394:	10c00515 	stw	r3,20(r2)
    }
 8000398:	0001883a 	nop
 800039c:	e037883a 	mov	sp,fp
 80003a0:	dfc00117 	ldw	ra,4(sp)
 80003a4:	df000017 	ldw	fp,0(sp)
 80003a8:	dec00204 	addi	sp,sp,8
 80003ac:	f800283a 	ret

080003b0 <start_render>:
#include "gdu.h"
#include "timer.h"
#include "game.h"
#include "mouse.h"

void start_render() {
 80003b0:	defffe04 	addi	sp,sp,-8
 80003b4:	dfc00115 	stw	ra,4(sp)
 80003b8:	df000015 	stw	fp,0(sp)
 80003bc:	d839883a 	mov	fp,sp
    static int frame = 0;
    while (!is_vblank());
 80003c0:	0001883a 	nop
 80003c4:	80057700 	call	8005770 <is_vblank>
 80003c8:	103ffe26 	beq	r2,zero,80003c4 <__alt_data_end+0xfc0003c4>
    set_frame(frame);
 80003cc:	d0a6e317 	ldw	r2,-25716(gp)
 80003d0:	1009883a 	mov	r4,r2
 80003d4:	80056e40 	call	80056e4 <set_frame>
    gdu_set_frame(get_frame(!frame));
 80003d8:	d0a6e317 	ldw	r2,-25716(gp)
 80003dc:	1005003a 	cmpeq	r2,r2,zero
 80003e0:	10803fcc 	andi	r2,r2,255
 80003e4:	1009883a 	mov	r4,r2
 80003e8:	80057200 	call	8005720 <get_frame>
 80003ec:	1009883a 	mov	r4,r2
 80003f0:	8001b1c0 	call	8001b1c <gdu_set_frame>
    gdu_run();
 80003f4:	8001a680 	call	8001a68 <gdu_run>
    frame = !frame;
 80003f8:	d0a6e317 	ldw	r2,-25716(gp)
 80003fc:	1005003a 	cmpeq	r2,r2,zero
 8000400:	10803fcc 	andi	r2,r2,255
 8000404:	d0a6e315 	stw	r2,-25716(gp)
}
 8000408:	0001883a 	nop
 800040c:	e037883a 	mov	sp,fp
 8000410:	dfc00117 	ldw	ra,4(sp)
 8000414:	df000017 	ldw	fp,0(sp)
 8000418:	dec00204 	addi	sp,sp,8
 800041c:	f800283a 	ret

08000420 <double_render>:

void double_render() {
 8000420:	defffe04 	addi	sp,sp,-8
 8000424:	dfc00115 	stw	ra,4(sp)
 8000428:	df000015 	stw	fp,0(sp)
 800042c:	d839883a 	mov	fp,sp
    start_render();
 8000430:	80003b00 	call	80003b0 <start_render>
    while (gdu_is_running());
 8000434:	0001883a 	nop
 8000438:	8001aa80 	call	8001aa8 <gdu_is_running>
 800043c:	103ffe1e 	bne	r2,zero,8000438 <__alt_data_end+0xfc000438>
    start_render();
 8000440:	80003b00 	call	80003b0 <start_render>
    while (gdu_is_running());
 8000444:	0001883a 	nop
 8000448:	8001aa80 	call	8001aa8 <gdu_is_running>
 800044c:	103ffe1e 	bne	r2,zero,8000448 <__alt_data_end+0xfc000448>
}
 8000450:	0001883a 	nop
 8000454:	e037883a 	mov	sp,fp
 8000458:	dfc00117 	ldw	ra,4(sp)
 800045c:	df000017 	ldw	fp,0(sp)
 8000460:	dec00204 	addi	sp,sp,8
 8000464:	f800283a 	ret

08000468 <create_fade>:

fade_t create_fade(uint16_t color, int dir) {
 8000468:	defff804 	addi	sp,sp,-32
 800046c:	df000715 	stw	fp,28(sp)
 8000470:	df000704 	addi	fp,sp,28
 8000474:	e13ffd15 	stw	r4,-12(fp)
 8000478:	2805883a 	mov	r2,r5
 800047c:	e1bfff15 	stw	r6,-4(fp)
 8000480:	e0bffe0d 	sth	r2,-8(fp)
    fade_t fade = {
 8000484:	e03ff915 	stw	zero,-28(fp)
 8000488:	e03ffa15 	stw	zero,-24(fp)
 800048c:	e0bfff17 	ldw	r2,-4(fp)
 8000490:	e0bffb15 	stw	r2,-20(fp)
 8000494:	e0bffe0b 	ldhu	r2,-8(fp)
 8000498:	e0bffc0d 	sth	r2,-16(fp)
        0,
        0,
        dir,
        color
    };
    return fade;
 800049c:	e0bffd17 	ldw	r2,-12(fp)
 80004a0:	e0fff917 	ldw	r3,-28(fp)
 80004a4:	10c00015 	stw	r3,0(r2)
 80004a8:	e0fffa17 	ldw	r3,-24(fp)
 80004ac:	10c00115 	stw	r3,4(r2)
 80004b0:	e0fffb17 	ldw	r3,-20(fp)
 80004b4:	10c00215 	stw	r3,8(r2)
 80004b8:	e0fffc17 	ldw	r3,-16(fp)
 80004bc:	10c00315 	stw	r3,12(r2)
}
 80004c0:	e0bffd17 	ldw	r2,-12(fp)
 80004c4:	e037883a 	mov	sp,fp
 80004c8:	df000017 	ldw	fp,0(sp)
 80004cc:	dec00104 	addi	sp,sp,4
 80004d0:	f800283a 	ret

080004d4 <start_fade>:

void start_fade(fade_t* fade, float seconds) {
 80004d4:	defffb04 	addi	sp,sp,-20
 80004d8:	dfc00415 	stw	ra,16(sp)
 80004dc:	df000315 	stw	fp,12(sp)
 80004e0:	df000304 	addi	fp,sp,12
 80004e4:	e13ffe15 	stw	r4,-8(fp)
 80004e8:	e17fff15 	stw	r5,-4(fp)
    float time  = get_time();
 80004ec:	80035400 	call	8003540 <get_time>
 80004f0:	e0bffd15 	stw	r2,-12(fp)
    fade->start = time;
 80004f4:	e0bffe17 	ldw	r2,-8(fp)
 80004f8:	e0fffd17 	ldw	r3,-12(fp)
 80004fc:	10c00015 	stw	r3,0(r2)
    fade->end   = time + seconds;
 8000500:	e17fff17 	ldw	r5,-4(fp)
 8000504:	e13ffd17 	ldw	r4,-12(fp)
 8000508:	80062340 	call	8006234 <__addsf3>
 800050c:	1009883a 	mov	r4,r2
 8000510:	2007883a 	mov	r3,r4
 8000514:	e0bffe17 	ldw	r2,-8(fp)
 8000518:	10c00115 	stw	r3,4(r2)
}
 800051c:	0001883a 	nop
 8000520:	e037883a 	mov	sp,fp
 8000524:	dfc00117 	ldw	ra,4(sp)
 8000528:	df000017 	ldw	fp,0(sp)
 800052c:	dec00204 	addi	sp,sp,8
 8000530:	f800283a 	ret

08000534 <is_fade_done>:

int is_fade_done(fade_t* fade) { return (get_time() - fade->start >= fade->end); }
 8000534:	defffc04 	addi	sp,sp,-16
 8000538:	dfc00315 	stw	ra,12(sp)
 800053c:	df000215 	stw	fp,8(sp)
 8000540:	dc000115 	stw	r16,4(sp)
 8000544:	df000204 	addi	fp,sp,8
 8000548:	e13ffe15 	stw	r4,-8(fp)
 800054c:	80035400 	call	8003540 <get_time>
 8000550:	1009883a 	mov	r4,r2
 8000554:	e0bffe17 	ldw	r2,-8(fp)
 8000558:	10c00017 	ldw	r3,0(r2)
 800055c:	180b883a 	mov	r5,r3
 8000560:	80070f00 	call	80070f0 <__subsf3>
 8000564:	1007883a 	mov	r3,r2
 8000568:	1809883a 	mov	r4,r3
 800056c:	e0bffe17 	ldw	r2,-8(fp)
 8000570:	10c00117 	ldw	r3,4(r2)
 8000574:	04000044 	movi	r16,1
 8000578:	180b883a 	mov	r5,r3
 800057c:	8006b3c0 	call	8006b3c <__gesf2>
 8000580:	1000010e 	bge	r2,zero,8000588 <is_fade_done+0x54>
 8000584:	0021883a 	mov	r16,zero
 8000588:	80803fcc 	andi	r2,r16,255
 800058c:	e6ffff04 	addi	sp,fp,-4
 8000590:	dfc00217 	ldw	ra,8(sp)
 8000594:	df000117 	ldw	fp,4(sp)
 8000598:	dc000017 	ldw	r16,0(sp)
 800059c:	dec00304 	addi	sp,sp,12
 80005a0:	f800283a 	ret

080005a4 <show_fade>:

int show_fade(fade_t* fade) {
 80005a4:	defffa04 	addi	sp,sp,-24
 80005a8:	dfc00515 	stw	ra,20(sp)
 80005ac:	df000415 	stw	fp,16(sp)
 80005b0:	dc000315 	stw	r16,12(sp)
 80005b4:	df000404 	addi	fp,sp,16
 80005b8:	e13ffe15 	stw	r4,-8(fp)
    float bias = (get_time() - fade->start) / (fade->end - fade->start);
 80005bc:	80035400 	call	8003540 <get_time>
 80005c0:	1009883a 	mov	r4,r2
 80005c4:	e0bffe17 	ldw	r2,-8(fp)
 80005c8:	10c00017 	ldw	r3,0(r2)
 80005cc:	180b883a 	mov	r5,r3
 80005d0:	80070f00 	call	80070f0 <__subsf3>
 80005d4:	1007883a 	mov	r3,r2
 80005d8:	1821883a 	mov	r16,r3
 80005dc:	e0bffe17 	ldw	r2,-8(fp)
 80005e0:	10c00117 	ldw	r3,4(r2)
 80005e4:	e0bffe17 	ldw	r2,-8(fp)
 80005e8:	11000017 	ldw	r4,0(r2)
 80005ec:	200b883a 	mov	r5,r4
 80005f0:	1809883a 	mov	r4,r3
 80005f4:	80070f00 	call	80070f0 <__subsf3>
 80005f8:	1007883a 	mov	r3,r2
 80005fc:	1805883a 	mov	r2,r3
 8000600:	100b883a 	mov	r5,r2
 8000604:	8009883a 	mov	r4,r16
 8000608:	80066fc0 	call	80066fc <__divsf3>
 800060c:	1007883a 	mov	r3,r2
 8000610:	e0fffc15 	stw	r3,-16(fp)
    int done = bias > 1;
 8000614:	04000044 	movi	r16,1
 8000618:	014fe034 	movhi	r5,16256
 800061c:	e13ffc17 	ldw	r4,-16(fp)
 8000620:	8006b3c0 	call	8006b3c <__gesf2>
 8000624:	00800116 	blt	zero,r2,800062c <show_fade+0x88>
 8000628:	0021883a 	mov	r16,zero
 800062c:	80803fcc 	andi	r2,r16,255
 8000630:	e0bffd15 	stw	r2,-12(fp)
    if (done)
 8000634:	e0bffd17 	ldw	r2,-12(fp)
 8000638:	10000226 	beq	r2,zero,8000644 <show_fade+0xa0>
        bias = 1;
 800063c:	008fe034 	movhi	r2,16256
 8000640:	e0bffc15 	stw	r2,-16(fp)
    if (fade->dir == FADE_FROM)
 8000644:	e0bffe17 	ldw	r2,-8(fp)
 8000648:	10800217 	ldw	r2,8(r2)
 800064c:	10800058 	cmpnei	r2,r2,1
 8000650:	1000051e 	bne	r2,zero,8000668 <show_fade+0xc4>
        bias = 1 - bias;
 8000654:	e17ffc17 	ldw	r5,-16(fp)
 8000658:	010fe034 	movhi	r4,16256
 800065c:	80070f00 	call	80070f0 <__subsf3>
 8000660:	1007883a 	mov	r3,r2
 8000664:	e0fffc15 	stw	r3,-16(fp)
    set_aura(fade->color, (uint32_t) (64 * bias));
 8000668:	e0bffe17 	ldw	r2,-8(fp)
 800066c:	1080030b 	ldhu	r2,12(r2)
 8000670:	143fffcc 	andi	r16,r2,65535
 8000674:	0150a034 	movhi	r5,17024
 8000678:	e13ffc17 	ldw	r4,-16(fp)
 800067c:	8006cc00 	call	8006cc0 <__mulsf3>
 8000680:	1007883a 	mov	r3,r2
 8000684:	1805883a 	mov	r2,r3
 8000688:	1009883a 	mov	r4,r2
 800068c:	80058ec0 	call	80058ec <__fixunssfsi>
 8000690:	100b883a 	mov	r5,r2
 8000694:	8009883a 	mov	r4,r16
 8000698:	80057940 	call	8005794 <set_aura>
    return done;
 800069c:	e0bffd17 	ldw	r2,-12(fp)
}
 80006a0:	e6ffff04 	addi	sp,fp,-4
 80006a4:	dfc00217 	ldw	ra,8(sp)
 80006a8:	df000117 	ldw	fp,4(sp)
 80006ac:	dc000017 	ldw	r16,0(sp)
 80006b0:	dec00304 	addi	sp,sp,12
 80006b4:	f800283a 	ret

080006b8 <mouse_over_object>:

int mouse_over_object(scene_t* scene, mouse_t* mouse, game_object_t* obj) {
 80006b8:	defff804 	addi	sp,sp,-32
 80006bc:	df000715 	stw	fp,28(sp)
 80006c0:	df000704 	addi	fp,sp,28
 80006c4:	e13ffd15 	stw	r4,-12(fp)
 80006c8:	e17ffe15 	stw	r5,-8(fp)
 80006cc:	e1bfff15 	stw	r6,-4(fp)
    int x = mouse->pos.x;
 80006d0:	e0bffe17 	ldw	r2,-8(fp)
 80006d4:	10800017 	ldw	r2,0(r2)
 80006d8:	e0bff915 	stw	r2,-28(fp)
    int y = mouse->pos.y;
 80006dc:	e0bffe17 	ldw	r2,-8(fp)
 80006e0:	10800117 	ldw	r2,4(r2)
 80006e4:	e0bffa15 	stw	r2,-24(fp)
    if (obj->flags & SCROLL) {
 80006e8:	e0bfff17 	ldw	r2,-4(fp)
 80006ec:	10800017 	ldw	r2,0(r2)
 80006f0:	1080010c 	andi	r2,r2,4
 80006f4:	10000a26 	beq	r2,zero,8000720 <mouse_over_object+0x68>
        x += scene->scroll.pos.x;
 80006f8:	e0bffd17 	ldw	r2,-12(fp)
 80006fc:	10800117 	ldw	r2,4(r2)
 8000700:	e0fff917 	ldw	r3,-28(fp)
 8000704:	1885883a 	add	r2,r3,r2
 8000708:	e0bff915 	stw	r2,-28(fp)
        y += scene->scroll.pos.y;
 800070c:	e0bffd17 	ldw	r2,-12(fp)
 8000710:	10800217 	ldw	r2,8(r2)
 8000714:	e0fffa17 	ldw	r3,-24(fp)
 8000718:	1885883a 	add	r2,r3,r2
 800071c:	e0bffa15 	stw	r2,-24(fp)
    }
    int w = obj->sprite.end_x - obj->sprite.start_x;
 8000720:	e0bfff17 	ldw	r2,-4(fp)
 8000724:	10c00a17 	ldw	r3,40(r2)
 8000728:	e0bfff17 	ldw	r2,-4(fp)
 800072c:	10800817 	ldw	r2,32(r2)
 8000730:	1885c83a 	sub	r2,r3,r2
 8000734:	e0bffb15 	stw	r2,-20(fp)
    int h = obj->sprite.end_y - obj->sprite.start_y;
 8000738:	e0bfff17 	ldw	r2,-4(fp)
 800073c:	10c00b17 	ldw	r3,44(r2)
 8000740:	e0bfff17 	ldw	r2,-4(fp)
 8000744:	10800917 	ldw	r2,36(r2)
 8000748:	1885c83a 	sub	r2,r3,r2
 800074c:	e0bffc15 	stw	r2,-16(fp)
    if (obj->flags & CENTERED) {
 8000750:	e0bfff17 	ldw	r2,-4(fp)
 8000754:	10800017 	ldw	r2,0(r2)
 8000758:	1080020c 	andi	r2,r2,8
 800075c:	10002826 	beq	r2,zero,8000800 <mouse_over_object+0x148>
        return (x >= obj->pos.x - w / 2 &&
 8000760:	e0bfff17 	ldw	r2,-4(fp)
 8000764:	10c00117 	ldw	r3,4(r2)
 8000768:	e0bffb17 	ldw	r2,-20(fp)
 800076c:	1008d7fa 	srli	r4,r2,31
 8000770:	2085883a 	add	r2,r4,r2
 8000774:	1005d07a 	srai	r2,r2,1
 8000778:	1885c83a 	sub	r2,r3,r2
                x <= obj->pos.x + w / 2 &&
                y >= obj->pos.y - h / 2 &&
 800077c:	e0fff917 	ldw	r3,-28(fp)
 8000780:	18801d16 	blt	r3,r2,80007f8 <mouse_over_object+0x140>
    }
    int w = obj->sprite.end_x - obj->sprite.start_x;
    int h = obj->sprite.end_y - obj->sprite.start_y;
    if (obj->flags & CENTERED) {
        return (x >= obj->pos.x - w / 2 &&
                x <= obj->pos.x + w / 2 &&
 8000784:	e0bfff17 	ldw	r2,-4(fp)
 8000788:	10c00117 	ldw	r3,4(r2)
 800078c:	e0bffb17 	ldw	r2,-20(fp)
 8000790:	1008d7fa 	srli	r4,r2,31
 8000794:	2085883a 	add	r2,r4,r2
 8000798:	1005d07a 	srai	r2,r2,1
 800079c:	1887883a 	add	r3,r3,r2
        y += scene->scroll.pos.y;
    }
    int w = obj->sprite.end_x - obj->sprite.start_x;
    int h = obj->sprite.end_y - obj->sprite.start_y;
    if (obj->flags & CENTERED) {
        return (x >= obj->pos.x - w / 2 &&
 80007a0:	e0bff917 	ldw	r2,-28(fp)
 80007a4:	18801416 	blt	r3,r2,80007f8 <mouse_over_object+0x140>
                x <= obj->pos.x + w / 2 &&
                y >= obj->pos.y - h / 2 &&
 80007a8:	e0bfff17 	ldw	r2,-4(fp)
 80007ac:	10c00217 	ldw	r3,8(r2)
 80007b0:	e0bffc17 	ldw	r2,-16(fp)
 80007b4:	1008d7fa 	srli	r4,r2,31
 80007b8:	2085883a 	add	r2,r4,r2
 80007bc:	1005d07a 	srai	r2,r2,1
 80007c0:	1885c83a 	sub	r2,r3,r2
    }
    int w = obj->sprite.end_x - obj->sprite.start_x;
    int h = obj->sprite.end_y - obj->sprite.start_y;
    if (obj->flags & CENTERED) {
        return (x >= obj->pos.x - w / 2 &&
                x <= obj->pos.x + w / 2 &&
 80007c4:	e0fffa17 	ldw	r3,-24(fp)
 80007c8:	18800b16 	blt	r3,r2,80007f8 <mouse_over_object+0x140>
                y >= obj->pos.y - h / 2 &&
                y <= obj->pos.y + h / 2);
 80007cc:	e0bfff17 	ldw	r2,-4(fp)
 80007d0:	10c00217 	ldw	r3,8(r2)
 80007d4:	e0bffc17 	ldw	r2,-16(fp)
 80007d8:	1008d7fa 	srli	r4,r2,31
 80007dc:	2085883a 	add	r2,r4,r2
 80007e0:	1005d07a 	srai	r2,r2,1
 80007e4:	1887883a 	add	r3,r3,r2
    int w = obj->sprite.end_x - obj->sprite.start_x;
    int h = obj->sprite.end_y - obj->sprite.start_y;
    if (obj->flags & CENTERED) {
        return (x >= obj->pos.x - w / 2 &&
                x <= obj->pos.x + w / 2 &&
                y >= obj->pos.y - h / 2 &&
 80007e8:	e0bffa17 	ldw	r2,-24(fp)
 80007ec:	18800216 	blt	r3,r2,80007f8 <mouse_over_object+0x140>
 80007f0:	00800044 	movi	r2,1
        y += scene->scroll.pos.y;
    }
    int w = obj->sprite.end_x - obj->sprite.start_x;
    int h = obj->sprite.end_y - obj->sprite.start_y;
    if (obj->flags & CENTERED) {
        return (x >= obj->pos.x - w / 2 &&
 80007f4:	00001a06 	br	8000860 <mouse_over_object+0x1a8>
                x <= obj->pos.x + w / 2 &&
                y >= obj->pos.y - h / 2 &&
 80007f8:	0005883a 	mov	r2,zero
        y += scene->scroll.pos.y;
    }
    int w = obj->sprite.end_x - obj->sprite.start_x;
    int h = obj->sprite.end_y - obj->sprite.start_y;
    if (obj->flags & CENTERED) {
        return (x >= obj->pos.x - w / 2 &&
 80007fc:	00001806 	br	8000860 <mouse_over_object+0x1a8>
                x <= obj->pos.x + w / 2 &&
                y >= obj->pos.y - h / 2 &&
                y <= obj->pos.y + h / 2);
    }
    return (x >= obj->pos.x && 
 8000800:	e0bfff17 	ldw	r2,-4(fp)
 8000804:	10800117 	ldw	r2,4(r2)
            x <= obj->pos.x + w &&
            y >= obj->pos.y && 
 8000808:	e0fff917 	ldw	r3,-28(fp)
 800080c:	18801216 	blt	r3,r2,8000858 <mouse_over_object+0x1a0>
                x <= obj->pos.x + w / 2 &&
                y >= obj->pos.y - h / 2 &&
                y <= obj->pos.y + h / 2);
    }
    return (x >= obj->pos.x && 
            x <= obj->pos.x + w &&
 8000810:	e0bfff17 	ldw	r2,-4(fp)
 8000814:	10c00117 	ldw	r3,4(r2)
 8000818:	e0bffb17 	ldw	r2,-20(fp)
 800081c:	1887883a 	add	r3,r3,r2
        return (x >= obj->pos.x - w / 2 &&
                x <= obj->pos.x + w / 2 &&
                y >= obj->pos.y - h / 2 &&
                y <= obj->pos.y + h / 2);
    }
    return (x >= obj->pos.x && 
 8000820:	e0bff917 	ldw	r2,-28(fp)
 8000824:	18800c16 	blt	r3,r2,8000858 <mouse_over_object+0x1a0>
            x <= obj->pos.x + w &&
            y >= obj->pos.y && 
 8000828:	e0bfff17 	ldw	r2,-4(fp)
 800082c:	10800217 	ldw	r2,8(r2)
                x <= obj->pos.x + w / 2 &&
                y >= obj->pos.y - h / 2 &&
                y <= obj->pos.y + h / 2);
    }
    return (x >= obj->pos.x && 
            x <= obj->pos.x + w &&
 8000830:	e0fffa17 	ldw	r3,-24(fp)
 8000834:	18800816 	blt	r3,r2,8000858 <mouse_over_object+0x1a0>
            y >= obj->pos.y && 
            y <= obj->pos.y + h);
 8000838:	e0bfff17 	ldw	r2,-4(fp)
 800083c:	10c00217 	ldw	r3,8(r2)
 8000840:	e0bffc17 	ldw	r2,-16(fp)
 8000844:	1887883a 	add	r3,r3,r2
                y >= obj->pos.y - h / 2 &&
                y <= obj->pos.y + h / 2);
    }
    return (x >= obj->pos.x && 
            x <= obj->pos.x + w &&
            y >= obj->pos.y && 
 8000848:	e0bffa17 	ldw	r2,-24(fp)
 800084c:	18800216 	blt	r3,r2,8000858 <mouse_over_object+0x1a0>
 8000850:	00800044 	movi	r2,1
        return (x >= obj->pos.x - w / 2 &&
                x <= obj->pos.x + w / 2 &&
                y >= obj->pos.y - h / 2 &&
                y <= obj->pos.y + h / 2);
    }
    return (x >= obj->pos.x && 
 8000854:	00000106 	br	800085c <mouse_over_object+0x1a4>
            x <= obj->pos.x + w &&
            y >= obj->pos.y && 
 8000858:	0005883a 	mov	r2,zero
        return (x >= obj->pos.x - w / 2 &&
                x <= obj->pos.x + w / 2 &&
                y >= obj->pos.y - h / 2 &&
                y <= obj->pos.y + h / 2);
    }
    return (x >= obj->pos.x && 
 800085c:	0001883a 	nop
            x <= obj->pos.x + w &&
            y >= obj->pos.y && 
            y <= obj->pos.y + h);
}
 8000860:	e037883a 	mov	sp,fp
 8000864:	df000017 	ldw	fp,0(sp)
 8000868:	dec00104 	addi	sp,sp,4
 800086c:	f800283a 	ret

08000870 <mouse_to_game>:

position_t mouse_to_game(scene_t* scene, mouse_t* mouse) {
 8000870:	defffb04 	addi	sp,sp,-20
 8000874:	df000415 	stw	fp,16(sp)
 8000878:	df000404 	addi	fp,sp,16
 800087c:	e13ffe15 	stw	r4,-8(fp)
 8000880:	e17fff15 	stw	r5,-4(fp)
    position_t pos = {scene->scroll.pos.x + mouse->pos.x, scene->scroll.pos.y + mouse->pos.y};
 8000884:	e0bffe17 	ldw	r2,-8(fp)
 8000888:	10c00117 	ldw	r3,4(r2)
 800088c:	e0bfff17 	ldw	r2,-4(fp)
 8000890:	10800017 	ldw	r2,0(r2)
 8000894:	1885883a 	add	r2,r3,r2
 8000898:	e0bffc15 	stw	r2,-16(fp)
 800089c:	e0bffe17 	ldw	r2,-8(fp)
 80008a0:	10c00217 	ldw	r3,8(r2)
 80008a4:	e0bfff17 	ldw	r2,-4(fp)
 80008a8:	10800117 	ldw	r2,4(r2)
 80008ac:	1885883a 	add	r2,r3,r2
 80008b0:	e0bffd15 	stw	r2,-12(fp)
    return pos;
 80008b4:	e0bffc17 	ldw	r2,-16(fp)
 80008b8:	e0fffd17 	ldw	r3,-12(fp)
 80008bc:	1009883a 	mov	r4,r2
 80008c0:	180b883a 	mov	r5,r3
}
 80008c4:	2005883a 	mov	r2,r4
 80008c8:	2807883a 	mov	r3,r5
 80008cc:	e037883a 	mov	sp,fp
 80008d0:	df000017 	ldw	fp,0(sp)
 80008d4:	dec00104 	addi	sp,sp,4
 80008d8:	f800283a 	ret

080008dc <handle_mouse>:

void handle_mouse(mouse_t* mouse, scene_t* scene, int h_scroll, int v_scroll) {
 80008dc:	defffb04 	addi	sp,sp,-20
 80008e0:	df000415 	stw	fp,16(sp)
 80008e4:	df000404 	addi	fp,sp,16
 80008e8:	e13ffc15 	stw	r4,-16(fp)
 80008ec:	e17ffd15 	stw	r5,-12(fp)
 80008f0:	e1bffe15 	stw	r6,-8(fp)
 80008f4:	e1ffff15 	stw	r7,-4(fp)
    if (mouse->pos.x < 0) {
 80008f8:	e0bffc17 	ldw	r2,-16(fp)
 80008fc:	10800017 	ldw	r2,0(r2)
 8000900:	1000110e 	bge	r2,zero,8000948 <handle_mouse+0x6c>
        if (h_scroll) {
 8000904:	e0bffe17 	ldw	r2,-8(fp)
 8000908:	10000c26 	beq	r2,zero,800093c <handle_mouse+0x60>
            scene->scroll.pos.x += mouse->pos.x;
 800090c:	e0bffd17 	ldw	r2,-12(fp)
 8000910:	10c00117 	ldw	r3,4(r2)
 8000914:	e0bffc17 	ldw	r2,-16(fp)
 8000918:	10800017 	ldw	r2,0(r2)
 800091c:	1887883a 	add	r3,r3,r2
 8000920:	e0bffd17 	ldw	r2,-12(fp)
 8000924:	10c00115 	stw	r3,4(r2)
            if (scene->scroll.pos.x < 0)
 8000928:	e0bffd17 	ldw	r2,-12(fp)
 800092c:	10800117 	ldw	r2,4(r2)
 8000930:	1000020e 	bge	r2,zero,800093c <handle_mouse+0x60>
                scene->scroll.pos.x = 0;
 8000934:	e0bffd17 	ldw	r2,-12(fp)
 8000938:	10000115 	stw	zero,4(r2)
        }
        mouse->pos.x = 0;
 800093c:	e0bffc17 	ldw	r2,-16(fp)
 8000940:	10000015 	stw	zero,0(r2)
 8000944:	00001a06 	br	80009b0 <handle_mouse+0xd4>
    } else if (mouse->pos.x > SCREEN_WIDTH) {
 8000948:	e0bffc17 	ldw	r2,-16(fp)
 800094c:	10800017 	ldw	r2,0(r2)
 8000950:	1080a050 	cmplti	r2,r2,641
 8000954:	1000161e 	bne	r2,zero,80009b0 <handle_mouse+0xd4>
        if (h_scroll) {
 8000958:	e0bffe17 	ldw	r2,-8(fp)
 800095c:	10001126 	beq	r2,zero,80009a4 <handle_mouse+0xc8>
            scene->scroll.pos.x += mouse->pos.x - SCREEN_WIDTH;
 8000960:	e0bffd17 	ldw	r2,-12(fp)
 8000964:	10c00117 	ldw	r3,4(r2)
 8000968:	e0bffc17 	ldw	r2,-16(fp)
 800096c:	10800017 	ldw	r2,0(r2)
 8000970:	10bf6004 	addi	r2,r2,-640
 8000974:	1887883a 	add	r3,r3,r2
 8000978:	e0bffd17 	ldw	r2,-12(fp)
 800097c:	10c00115 	stw	r3,4(r2)
            if (scene->scroll.pos.x > scene->scroll.max.x)
 8000980:	e0bffd17 	ldw	r2,-12(fp)
 8000984:	10800117 	ldw	r2,4(r2)
 8000988:	e0fffd17 	ldw	r3,-12(fp)
 800098c:	18c00317 	ldw	r3,12(r3)
 8000990:	1880040e 	bge	r3,r2,80009a4 <handle_mouse+0xc8>
                scene->scroll.pos.x = scene->scroll.max.x;
 8000994:	e0bffd17 	ldw	r2,-12(fp)
 8000998:	10c00317 	ldw	r3,12(r2)
 800099c:	e0bffd17 	ldw	r2,-12(fp)
 80009a0:	10c00115 	stw	r3,4(r2)
        }
        mouse->pos.x = SCREEN_WIDTH;
 80009a4:	e0bffc17 	ldw	r2,-16(fp)
 80009a8:	00c0a004 	movi	r3,640
 80009ac:	10c00015 	stw	r3,0(r2)
    }       
    if (mouse->pos.y < 0) {
 80009b0:	e0bffc17 	ldw	r2,-16(fp)
 80009b4:	10800117 	ldw	r2,4(r2)
 80009b8:	1000110e 	bge	r2,zero,8000a00 <handle_mouse+0x124>
        if (v_scroll) {
 80009bc:	e0bfff17 	ldw	r2,-4(fp)
 80009c0:	10000c26 	beq	r2,zero,80009f4 <handle_mouse+0x118>
            scene->scroll.pos.y += mouse->pos.y;
 80009c4:	e0bffd17 	ldw	r2,-12(fp)
 80009c8:	10c00217 	ldw	r3,8(r2)
 80009cc:	e0bffc17 	ldw	r2,-16(fp)
 80009d0:	10800117 	ldw	r2,4(r2)
 80009d4:	1887883a 	add	r3,r3,r2
 80009d8:	e0bffd17 	ldw	r2,-12(fp)
 80009dc:	10c00215 	stw	r3,8(r2)
            if (scene->scroll.pos.y < 0)
 80009e0:	e0bffd17 	ldw	r2,-12(fp)
 80009e4:	10800217 	ldw	r2,8(r2)
 80009e8:	1000020e 	bge	r2,zero,80009f4 <handle_mouse+0x118>
                scene->scroll.pos.y = 0;
 80009ec:	e0bffd17 	ldw	r2,-12(fp)
 80009f0:	10000215 	stw	zero,8(r2)
        }
        mouse->pos.y = 0;
 80009f4:	e0bffc17 	ldw	r2,-16(fp)
 80009f8:	10000115 	stw	zero,4(r2)
            if (scene->scroll.pos.y > scene->scroll.max.y)
                scene->scroll.pos.y = scene->scroll.max.y;
        }
        mouse->pos.y = SCREEN_HEIGHT;
    }
 80009fc:	00001a06 	br	8000a68 <handle_mouse+0x18c>
            scene->scroll.pos.y += mouse->pos.y;
            if (scene->scroll.pos.y < 0)
                scene->scroll.pos.y = 0;
        }
        mouse->pos.y = 0;
    } else if (mouse->pos.y > SCREEN_HEIGHT) {
 8000a00:	e0bffc17 	ldw	r2,-16(fp)
 8000a04:	10800117 	ldw	r2,4(r2)
 8000a08:	10807850 	cmplti	r2,r2,481
 8000a0c:	1000161e 	bne	r2,zero,8000a68 <handle_mouse+0x18c>
        if (v_scroll) {
 8000a10:	e0bfff17 	ldw	r2,-4(fp)
 8000a14:	10001126 	beq	r2,zero,8000a5c <handle_mouse+0x180>
            scene->scroll.pos.y += mouse->pos.y - SCREEN_HEIGHT;
 8000a18:	e0bffd17 	ldw	r2,-12(fp)
 8000a1c:	10c00217 	ldw	r3,8(r2)
 8000a20:	e0bffc17 	ldw	r2,-16(fp)
 8000a24:	10800117 	ldw	r2,4(r2)
 8000a28:	10bf8804 	addi	r2,r2,-480
 8000a2c:	1887883a 	add	r3,r3,r2
 8000a30:	e0bffd17 	ldw	r2,-12(fp)
 8000a34:	10c00215 	stw	r3,8(r2)
            if (scene->scroll.pos.y > scene->scroll.max.y)
 8000a38:	e0bffd17 	ldw	r2,-12(fp)
 8000a3c:	10800217 	ldw	r2,8(r2)
 8000a40:	e0fffd17 	ldw	r3,-12(fp)
 8000a44:	18c00417 	ldw	r3,16(r3)
 8000a48:	1880040e 	bge	r3,r2,8000a5c <handle_mouse+0x180>
                scene->scroll.pos.y = scene->scroll.max.y;
 8000a4c:	e0bffd17 	ldw	r2,-12(fp)
 8000a50:	10c00417 	ldw	r3,16(r2)
 8000a54:	e0bffd17 	ldw	r2,-12(fp)
 8000a58:	10c00215 	stw	r3,8(r2)
        }
        mouse->pos.y = SCREEN_HEIGHT;
 8000a5c:	e0bffc17 	ldw	r2,-16(fp)
 8000a60:	00c07804 	movi	r3,480
 8000a64:	10c00115 	stw	r3,4(r2)
    }
 8000a68:	0001883a 	nop
 8000a6c:	e037883a 	mov	sp,fp
 8000a70:	df000017 	ldw	fp,0(sp)
 8000a74:	dec00104 	addi	sp,sp,4
 8000a78:	f800283a 	ret

08000a7c <init_object>:
#include "game.h"
#include "vga.h"
#include <string.h>
#include <math.h>

void init_object(game_object_t* object, int flags) {
 8000a7c:	defffc04 	addi	sp,sp,-16
 8000a80:	dfc00315 	stw	ra,12(sp)
 8000a84:	df000215 	stw	fp,8(sp)
 8000a88:	df000204 	addi	fp,sp,8
 8000a8c:	e13ffe15 	stw	r4,-8(fp)
 8000a90:	e17fff15 	stw	r5,-4(fp)
    memset(object, 0, sizeof(game_object_t));
 8000a94:	01800c04 	movi	r6,48
 8000a98:	000b883a 	mov	r5,zero
 8000a9c:	e13ffe17 	ldw	r4,-8(fp)
 8000aa0:	80097e40 	call	80097e4 <memset>
    object->flags = flags;
 8000aa4:	e0bffe17 	ldw	r2,-8(fp)
 8000aa8:	e0ffff17 	ldw	r3,-4(fp)
 8000aac:	10c00015 	stw	r3,0(r2)
}
 8000ab0:	0001883a 	nop
 8000ab4:	e037883a 	mov	sp,fp
 8000ab8:	dfc00117 	ldw	ra,4(sp)
 8000abc:	df000017 	ldw	fp,0(sp)
 8000ac0:	dec00204 	addi	sp,sp,8
 8000ac4:	f800283a 	ret

08000ac8 <allocate_object>:

game_object_t* allocate_object(scene_t* scene, int type, int flags) {
 8000ac8:	defff504 	addi	sp,sp,-44
 8000acc:	dfc00a15 	stw	ra,40(sp)
 8000ad0:	df000915 	stw	fp,36(sp)
 8000ad4:	df000904 	addi	fp,sp,36
 8000ad8:	e13ffd15 	stw	r4,-12(fp)
 8000adc:	e17ffe15 	stw	r5,-8(fp)
 8000ae0:	e1bfff15 	stw	r6,-4(fp)
    switch (type) {
 8000ae4:	e0bffe17 	ldw	r2,-8(fp)
 8000ae8:	10c00060 	cmpeqi	r3,r2,1
 8000aec:	1800221e 	bne	r3,zero,8000b78 <allocate_object+0xb0>
 8000af0:	10c00088 	cmpgei	r3,r2,2
 8000af4:	1800021e 	bne	r3,zero,8000b00 <allocate_object+0x38>
 8000af8:	10000626 	beq	r2,zero,8000b14 <allocate_object+0x4c>
 8000afc:	00005e06 	br	8000c78 <allocate_object+0x1b0>
 8000b00:	10c000a0 	cmpeqi	r3,r2,2
 8000b04:	1800351e 	bne	r3,zero,8000bdc <allocate_object+0x114>
 8000b08:	108000e0 	cmpeqi	r2,r2,3
 8000b0c:	10004d1e 	bne	r2,zero,8000c44 <allocate_object+0x17c>
 8000b10:	00005906 	br	8000c78 <allocate_object+0x1b0>
        case BACKGROUND:
            for (int i = 0; i < BACKGROUND_SPRITES; i++) {
 8000b14:	e03ff715 	stw	zero,-36(fp)
 8000b18:	00001306 	br	8000b68 <allocate_object+0xa0>
                game_object_t* obj = &scene->objects.typed.background[i];
 8000b1c:	01400c04 	movi	r5,48
 8000b20:	e13ff717 	ldw	r4,-36(fp)
 8000b24:	800620c0 	call	800620c <__mulsi3>
 8000b28:	10819704 	addi	r2,r2,1628
 8000b2c:	e0fffd17 	ldw	r3,-12(fp)
 8000b30:	1885883a 	add	r2,r3,r2
 8000b34:	e0bffa15 	stw	r2,-24(fp)
                if (!(obj->flags & USED)) {
 8000b38:	e0bffa17 	ldw	r2,-24(fp)
 8000b3c:	10800017 	ldw	r2,0(r2)
 8000b40:	1080004c 	andi	r2,r2,1
 8000b44:	1000051e 	bne	r2,zero,8000b5c <allocate_object+0x94>
                    init_object(obj, flags);
 8000b48:	e17fff17 	ldw	r5,-4(fp)
 8000b4c:	e13ffa17 	ldw	r4,-24(fp)
 8000b50:	8000a7c0 	call	8000a7c <init_object>
                    return obj;
 8000b54:	e0bffa17 	ldw	r2,-24(fp)
 8000b58:	00004806 	br	8000c7c <allocate_object+0x1b4>
}

game_object_t* allocate_object(scene_t* scene, int type, int flags) {
    switch (type) {
        case BACKGROUND:
            for (int i = 0; i < BACKGROUND_SPRITES; i++) {
 8000b5c:	e0bff717 	ldw	r2,-36(fp)
 8000b60:	10800044 	addi	r2,r2,1
 8000b64:	e0bff715 	stw	r2,-36(fp)
 8000b68:	e0bff717 	ldw	r2,-36(fp)
 8000b6c:	10800210 	cmplti	r2,r2,8
 8000b70:	103fea1e 	bne	r2,zero,8000b1c <__alt_data_end+0xfc000b1c>
                if (!(obj->flags & USED)) {
                    init_object(obj, flags);
                    return obj;
                }
            }
            break;
 8000b74:	00004006 	br	8000c78 <allocate_object+0x1b0>
        
        case SHIPS:
            for (int i = 0; i < SHIP_SPRITES; i++) {
 8000b78:	e03ff815 	stw	zero,-32(fp)
 8000b7c:	00001306 	br	8000bcc <allocate_object+0x104>
                game_object_t* obj = &scene->objects.typed.ships[i];
 8000b80:	01400c04 	movi	r5,48
 8000b84:	e13ff817 	ldw	r4,-32(fp)
 8000b88:	800620c0 	call	800620c <__mulsi3>
 8000b8c:	1081f704 	addi	r2,r2,2012
 8000b90:	e0fffd17 	ldw	r3,-12(fp)
 8000b94:	1885883a 	add	r2,r3,r2
 8000b98:	e0bffb15 	stw	r2,-20(fp)
                if (!(obj->flags & USED)) {
 8000b9c:	e0bffb17 	ldw	r2,-20(fp)
 8000ba0:	10800017 	ldw	r2,0(r2)
 8000ba4:	1080004c 	andi	r2,r2,1
 8000ba8:	1000051e 	bne	r2,zero,8000bc0 <allocate_object+0xf8>
                    init_object(obj, flags);
 8000bac:	e17fff17 	ldw	r5,-4(fp)
 8000bb0:	e13ffb17 	ldw	r4,-20(fp)
 8000bb4:	8000a7c0 	call	8000a7c <init_object>
                    return obj;
 8000bb8:	e0bffb17 	ldw	r2,-20(fp)
 8000bbc:	00002f06 	br	8000c7c <allocate_object+0x1b4>
                }
            }
            break;
        
        case SHIPS:
            for (int i = 0; i < SHIP_SPRITES; i++) {
 8000bc0:	e0bff817 	ldw	r2,-32(fp)
 8000bc4:	10800044 	addi	r2,r2,1
 8000bc8:	e0bff815 	stw	r2,-32(fp)
 8000bcc:	e0bff817 	ldw	r2,-32(fp)
 8000bd0:	10800610 	cmplti	r2,r2,24
 8000bd4:	103fea1e 	bne	r2,zero,8000b80 <__alt_data_end+0xfc000b80>
                if (!(obj->flags & USED)) {
                    init_object(obj, flags);
                    return obj;
                }
            }
            break;
 8000bd8:	00002706 	br	8000c78 <allocate_object+0x1b0>
        
        case EFFECTS:
            for (int i = 0 + SHIP_SPRITES; i < EFFECT_SPRITES; i++) {
 8000bdc:	00800604 	movi	r2,24
 8000be0:	e0bff915 	stw	r2,-28(fp)
 8000be4:	00001306 	br	8000c34 <allocate_object+0x16c>
                game_object_t* obj = &scene->objects.typed.effects[i];
 8000be8:	01400c04 	movi	r5,48
 8000bec:	e13ff917 	ldw	r4,-28(fp)
 8000bf0:	800620c0 	call	800620c <__mulsi3>
 8000bf4:	10831704 	addi	r2,r2,3164
 8000bf8:	e0fffd17 	ldw	r3,-12(fp)
 8000bfc:	1885883a 	add	r2,r3,r2
 8000c00:	e0bffc15 	stw	r2,-16(fp)
                if (!(obj->flags & USED)) {
 8000c04:	e0bffc17 	ldw	r2,-16(fp)
 8000c08:	10800017 	ldw	r2,0(r2)
 8000c0c:	1080004c 	andi	r2,r2,1
 8000c10:	1000051e 	bne	r2,zero,8000c28 <allocate_object+0x160>
                    init_object(obj, flags);
 8000c14:	e17fff17 	ldw	r5,-4(fp)
 8000c18:	e13ffc17 	ldw	r4,-16(fp)
 8000c1c:	8000a7c0 	call	8000a7c <init_object>
                    return obj;
 8000c20:	e0bffc17 	ldw	r2,-16(fp)
 8000c24:	00001506 	br	8000c7c <allocate_object+0x1b4>
                }
            }
            break;
        
        case EFFECTS:
            for (int i = 0 + SHIP_SPRITES; i < EFFECT_SPRITES; i++) {
 8000c28:	e0bff917 	ldw	r2,-28(fp)
 8000c2c:	10800044 	addi	r2,r2,1
 8000c30:	e0bff915 	stw	r2,-28(fp)
 8000c34:	e0bff917 	ldw	r2,-28(fp)
 8000c38:	108007d0 	cmplti	r2,r2,31
 8000c3c:	103fea1e 	bne	r2,zero,8000be8 <__alt_data_end+0xfc000be8>
                if (!(obj->flags & USED)) {
                    init_object(obj, flags);
                    return obj;
                }
            }
            break;
 8000c40:	00000d06 	br	8000c78 <allocate_object+0x1b0>
        
        case CURSOR:
            if (!(scene->objects.typed.cursor.flags & USED)) {
 8000c44:	e0bffd17 	ldw	r2,-12(fp)
 8000c48:	10848b17 	ldw	r2,4652(r2)
 8000c4c:	1080004c 	andi	r2,r2,1
 8000c50:	1000081e 	bne	r2,zero,8000c74 <allocate_object+0x1ac>
                init_object(&scene->objects.typed.cursor, flags);
 8000c54:	e0bffd17 	ldw	r2,-12(fp)
 8000c58:	10848b04 	addi	r2,r2,4652
 8000c5c:	e17fff17 	ldw	r5,-4(fp)
 8000c60:	1009883a 	mov	r4,r2
 8000c64:	8000a7c0 	call	8000a7c <init_object>
                return &scene->objects.typed.cursor;
 8000c68:	e0bffd17 	ldw	r2,-12(fp)
 8000c6c:	10848b04 	addi	r2,r2,4652
 8000c70:	00000206 	br	8000c7c <allocate_object+0x1b4>
            }
            break;
 8000c74:	0001883a 	nop
    }
    return NULL;
 8000c78:	0005883a 	mov	r2,zero
}
 8000c7c:	e037883a 	mov	sp,fp
 8000c80:	dfc00117 	ldw	ra,4(sp)
 8000c84:	df000017 	ldw	fp,0(sp)
 8000c88:	dec00204 	addi	sp,sp,8
 8000c8c:	f800283a 	ret

08000c90 <deallocate_object>:

void deallocate_object(game_object_t* obj) {
 8000c90:	defffe04 	addi	sp,sp,-8
 8000c94:	df000115 	stw	fp,4(sp)
 8000c98:	df000104 	addi	fp,sp,4
 8000c9c:	e13fff15 	stw	r4,-4(fp)
    if (obj != NULL)
 8000ca0:	e0bfff17 	ldw	r2,-4(fp)
 8000ca4:	10000226 	beq	r2,zero,8000cb0 <deallocate_object+0x20>
        obj->flags = 0;
 8000ca8:	e0bfff17 	ldw	r2,-4(fp)
 8000cac:	10000015 	stw	zero,0(r2)
}
 8000cb0:	0001883a 	nop
 8000cb4:	e037883a 	mov	sp,fp
 8000cb8:	df000017 	ldw	fp,0(sp)
 8000cbc:	dec00104 	addi	sp,sp,4
 8000cc0:	f800283a 	ret

08000cc4 <push_scene>:

void push_scene(scene_t* scene) {
 8000cc4:	defff604 	addi	sp,sp,-40
 8000cc8:	dfc00915 	stw	ra,36(sp)
 8000ccc:	df000815 	stw	fp,32(sp)
 8000cd0:	df000804 	addi	fp,sp,32
 8000cd4:	e13fff15 	stw	r4,-4(fp)
    for (int i = 0; i < MAX_SPRITES; i++) {
 8000cd8:	e03ff815 	stw	zero,-32(fp)
 8000cdc:	00006806 	br	8000e80 <push_scene+0x1bc>
        game_object_t* obj = &scene->objects.untyped[i];
 8000ce0:	01400c04 	movi	r5,48
 8000ce4:	e13ff817 	ldw	r4,-32(fp)
 8000ce8:	800620c0 	call	800620c <__mulsi3>
 8000cec:	10819704 	addi	r2,r2,1628
 8000cf0:	e0ffff17 	ldw	r3,-4(fp)
 8000cf4:	1885883a 	add	r2,r3,r2
 8000cf8:	e0bffc15 	stw	r2,-16(fp)
        int pop = 1;
 8000cfc:	00800044 	movi	r2,1
 8000d00:	e0bff915 	stw	r2,-28(fp)
        
        if ((obj->flags & USED) && (obj->flags & VISABLE)) {
 8000d04:	e0bffc17 	ldw	r2,-16(fp)
 8000d08:	10800017 	ldw	r2,0(r2)
 8000d0c:	1080004c 	andi	r2,r2,1
 8000d10:	10004d26 	beq	r2,zero,8000e48 <push_scene+0x184>
 8000d14:	e0bffc17 	ldw	r2,-16(fp)
 8000d18:	10800017 	ldw	r2,0(r2)
 8000d1c:	1080008c 	andi	r2,r2,2
 8000d20:	10004926 	beq	r2,zero,8000e48 <push_scene+0x184>
            int x = obj->pos.x;
 8000d24:	e0bffc17 	ldw	r2,-16(fp)
 8000d28:	10800117 	ldw	r2,4(r2)
 8000d2c:	e0bffa15 	stw	r2,-24(fp)
            int y = obj->pos.y;
 8000d30:	e0bffc17 	ldw	r2,-16(fp)
 8000d34:	10800217 	ldw	r2,8(r2)
 8000d38:	e0bffb15 	stw	r2,-20(fp)

            if (obj->flags & SCROLL) {
 8000d3c:	e0bffc17 	ldw	r2,-16(fp)
 8000d40:	10800017 	ldw	r2,0(r2)
 8000d44:	1080010c 	andi	r2,r2,4
 8000d48:	10000a26 	beq	r2,zero,8000d74 <push_scene+0xb0>
                x -= scene->scroll.pos.x;
 8000d4c:	e0bfff17 	ldw	r2,-4(fp)
 8000d50:	10800117 	ldw	r2,4(r2)
 8000d54:	e0fffa17 	ldw	r3,-24(fp)
 8000d58:	1885c83a 	sub	r2,r3,r2
 8000d5c:	e0bffa15 	stw	r2,-24(fp)
                y -= scene->scroll.pos.y;
 8000d60:	e0bfff17 	ldw	r2,-4(fp)
 8000d64:	10800217 	ldw	r2,8(r2)
 8000d68:	e0fffb17 	ldw	r3,-20(fp)
 8000d6c:	1885c83a 	sub	r2,r3,r2
 8000d70:	e0bffb15 	stw	r2,-20(fp)
            }

            int w = obj->sprite.end_x - obj->sprite.start_x;
 8000d74:	e0bffc17 	ldw	r2,-16(fp)
 8000d78:	10c00a17 	ldw	r3,40(r2)
 8000d7c:	e0bffc17 	ldw	r2,-16(fp)
 8000d80:	10800817 	ldw	r2,32(r2)
 8000d84:	1885c83a 	sub	r2,r3,r2
 8000d88:	e0bffd15 	stw	r2,-12(fp)
            int h = obj->sprite.end_y - obj->sprite.start_y;
 8000d8c:	e0bffc17 	ldw	r2,-16(fp)
 8000d90:	10c00b17 	ldw	r3,44(r2)
 8000d94:	e0bffc17 	ldw	r2,-16(fp)
 8000d98:	10800917 	ldw	r2,36(r2)
 8000d9c:	1885c83a 	sub	r2,r3,r2
 8000da0:	e0bffe15 	stw	r2,-8(fp)

            if (obj->flags & CENTERED) {
 8000da4:	e0bffc17 	ldw	r2,-16(fp)
 8000da8:	10800017 	ldw	r2,0(r2)
 8000dac:	1080020c 	andi	r2,r2,8
 8000db0:	10001026 	beq	r2,zero,8000df4 <push_scene+0x130>
                x -= w / 2;
 8000db4:	e0bffd17 	ldw	r2,-12(fp)
 8000db8:	1006d7fa 	srli	r3,r2,31
 8000dbc:	1885883a 	add	r2,r3,r2
 8000dc0:	1005d07a 	srai	r2,r2,1
 8000dc4:	1007883a 	mov	r3,r2
 8000dc8:	e0bffa17 	ldw	r2,-24(fp)
 8000dcc:	10c5c83a 	sub	r2,r2,r3
 8000dd0:	e0bffa15 	stw	r2,-24(fp)
                y -= h / 2;
 8000dd4:	e0bffe17 	ldw	r2,-8(fp)
 8000dd8:	1006d7fa 	srli	r3,r2,31
 8000ddc:	1885883a 	add	r2,r3,r2
 8000de0:	1005d07a 	srai	r2,r2,1
 8000de4:	1007883a 	mov	r3,r2
 8000de8:	e0bffb17 	ldw	r2,-20(fp)
 8000dec:	10c5c83a 	sub	r2,r2,r3
 8000df0:	e0bffb15 	stw	r2,-20(fp)
            }

            if (x >= -w && x < SCREEN_WIDTH && y >= -h && y < SCREEN_HEIGHT) {
 8000df4:	e0bffd17 	ldw	r2,-12(fp)
 8000df8:	0085c83a 	sub	r2,zero,r2
 8000dfc:	e0fffa17 	ldw	r3,-24(fp)
 8000e00:	18801116 	blt	r3,r2,8000e48 <push_scene+0x184>
 8000e04:	e0bffa17 	ldw	r2,-24(fp)
 8000e08:	1080a008 	cmpgei	r2,r2,640
 8000e0c:	10000e1e 	bne	r2,zero,8000e48 <push_scene+0x184>
 8000e10:	e0bffe17 	ldw	r2,-8(fp)
 8000e14:	0085c83a 	sub	r2,zero,r2
 8000e18:	e0fffb17 	ldw	r3,-20(fp)
 8000e1c:	18800a16 	blt	r3,r2,8000e48 <push_scene+0x184>
 8000e20:	e0bffb17 	ldw	r2,-20(fp)
 8000e24:	10807808 	cmpgei	r2,r2,480
 8000e28:	1000071e 	bne	r2,zero,8000e48 <push_scene+0x184>
                obj->sprite.screen_x = x;
 8000e2c:	e0bffc17 	ldw	r2,-16(fp)
 8000e30:	e0fffa17 	ldw	r3,-24(fp)
 8000e34:	10c00615 	stw	r3,24(r2)
                obj->sprite.screen_y = y;
 8000e38:	e0bffc17 	ldw	r2,-16(fp)
 8000e3c:	e0fffb17 	ldw	r3,-20(fp)
 8000e40:	10c00715 	stw	r3,28(r2)
                pop = 0;
 8000e44:	e03ff915 	stw	zero,-28(fp)
            }
        }

        if (pop)
 8000e48:	e0bff917 	ldw	r2,-28(fp)
 8000e4c:	10000326 	beq	r2,zero,8000e5c <push_scene+0x198>
            pop_sprite(i);
 8000e50:	e13ff817 	ldw	r4,-32(fp)
 8000e54:	8001c840 	call	8001c84 <pop_sprite>
 8000e58:	00000606 	br	8000e74 <push_scene+0x1b0>
        else
            push_sprite(&obj->sprite, i);
 8000e5c:	e0bffc17 	ldw	r2,-16(fp)
 8000e60:	10800304 	addi	r2,r2,12
 8000e64:	e0fff817 	ldw	r3,-32(fp)
 8000e68:	180b883a 	mov	r5,r3
 8000e6c:	1009883a 	mov	r4,r2
 8000e70:	8001c140 	call	8001c14 <push_sprite>
    if (obj != NULL)
        obj->flags = 0;
}

void push_scene(scene_t* scene) {
    for (int i = 0; i < MAX_SPRITES; i++) {
 8000e74:	e0bff817 	ldw	r2,-32(fp)
 8000e78:	10800044 	addi	r2,r2,1
 8000e7c:	e0bff815 	stw	r2,-32(fp)
 8000e80:	e0bff817 	ldw	r2,-32(fp)
 8000e84:	10801010 	cmplti	r2,r2,64
 8000e88:	103f951e 	bne	r2,zero,8000ce0 <__alt_data_end+0xfc000ce0>
            pop_sprite(i);
        else
            push_sprite(&obj->sprite, i);
              
    }
}
 8000e8c:	0001883a 	nop
 8000e90:	e037883a 	mov	sp,fp
 8000e94:	dfc00117 	ldw	ra,4(sp)
 8000e98:	df000017 	ldw	fp,0(sp)
 8000e9c:	dec00204 	addi	sp,sp,8
 8000ea0:	f800283a 	ret

08000ea4 <clear_scene>:

void clear_scene(scene_t* scene) {
 8000ea4:	defffd04 	addi	sp,sp,-12
 8000ea8:	dfc00215 	stw	ra,8(sp)
 8000eac:	df000115 	stw	fp,4(sp)
 8000eb0:	df000104 	addi	fp,sp,4
 8000eb4:	e13fff15 	stw	r4,-4(fp)
    memset(scene, 0, sizeof(scene_t));
 8000eb8:	01849704 	movi	r6,4700
 8000ebc:	000b883a 	mov	r5,zero
 8000ec0:	e13fff17 	ldw	r4,-4(fp)
 8000ec4:	80097e40 	call	80097e4 <memset>
    scene->last_update = 0.0f;
 8000ec8:	e0bfff17 	ldw	r2,-4(fp)
 8000ecc:	10000015 	stw	zero,0(r2)
}
 8000ed0:	0001883a 	nop
 8000ed4:	e037883a 	mov	sp,fp
 8000ed8:	dfc00117 	ldw	ra,4(sp)
 8000edc:	df000017 	ldw	fp,0(sp)
 8000ee0:	dec00204 	addi	sp,sp,8
 8000ee4:	f800283a 	ret

08000ee8 <ship_select>:

ship_t* ship_select(scene_t* scene, int user) {
 8000ee8:	defffd04 	addi	sp,sp,-12
 8000eec:	df000215 	stw	fp,8(sp)
 8000ef0:	df000204 	addi	fp,sp,8
 8000ef4:	e13ffe15 	stw	r4,-8(fp)
 8000ef8:	e17fff15 	stw	r5,-4(fp)
    switch (user) {
 8000efc:	e0bfff17 	ldw	r2,-4(fp)
 8000f00:	10000326 	beq	r2,zero,8000f10 <ship_select+0x28>
 8000f04:	10800060 	cmpeqi	r2,r2,1
 8000f08:	1000041e 	bne	r2,zero,8000f1c <ship_select+0x34>
 8000f0c:	00000606 	br	8000f28 <ship_select+0x40>
        case PLAYER:
            return scene->ships.player;
 8000f10:	e0bffe17 	ldw	r2,-8(fp)
 8000f14:	10800704 	addi	r2,r2,28
 8000f18:	00000406 	br	8000f2c <ship_select+0x44>
        case ENEMY:
            return scene->ships.enemy;
 8000f1c:	e0bffe17 	ldw	r2,-8(fp)
 8000f20:	10806104 	addi	r2,r2,388
 8000f24:	00000106 	br	8000f2c <ship_select+0x44>
    }
    return NULL;
 8000f28:	0005883a 	mov	r2,zero
}
 8000f2c:	e037883a 	mov	sp,fp
 8000f30:	df000017 	ldw	fp,0(sp)
 8000f34:	dec00104 	addi	sp,sp,4
 8000f38:	f800283a 	ret

08000f3c <allocate_ship>:

ship_t* allocate_ship(scene_t* scene, int user) {
 8000f3c:	defffa04 	addi	sp,sp,-24
 8000f40:	dfc00515 	stw	ra,20(sp)
 8000f44:	df000415 	stw	fp,16(sp)
 8000f48:	df000404 	addi	fp,sp,16
 8000f4c:	e13ffe15 	stw	r4,-8(fp)
 8000f50:	e17fff15 	stw	r5,-4(fp)
    ship_t* ships = ship_select(scene, user);
 8000f54:	e17fff17 	ldw	r5,-4(fp)
 8000f58:	e13ffe17 	ldw	r4,-8(fp)
 8000f5c:	8000ee80 	call	8000ee8 <ship_select>
 8000f60:	e0bffd15 	stw	r2,-12(fp)
    if (ships == NULL)
 8000f64:	e0bffd17 	ldw	r2,-12(fp)
 8000f68:	1000021e 	bne	r2,zero,8000f74 <allocate_ship+0x38>
        return NULL;
 8000f6c:	0005883a 	mov	r2,zero
 8000f70:	00001a06 	br	8000fdc <allocate_ship+0xa0>
    
    for (int i = 0; i < USER_SHIPS; i++) {
 8000f74:	e03ffc15 	stw	zero,-16(fp)
 8000f78:	00001406 	br	8000fcc <allocate_ship+0x90>
        if (ships[i].ptr == NULL)
 8000f7c:	e0bffc17 	ldw	r2,-16(fp)
 8000f80:	01400f04 	movi	r5,60
 8000f84:	1009883a 	mov	r4,r2
 8000f88:	800620c0 	call	800620c <__mulsi3>
 8000f8c:	1007883a 	mov	r3,r2
 8000f90:	e0bffd17 	ldw	r2,-12(fp)
 8000f94:	10c5883a 	add	r2,r2,r3
 8000f98:	10800017 	ldw	r2,0(r2)
 8000f9c:	1000081e 	bne	r2,zero,8000fc0 <allocate_ship+0x84>
            return &ships[i];
 8000fa0:	e0bffc17 	ldw	r2,-16(fp)
 8000fa4:	01400f04 	movi	r5,60
 8000fa8:	1009883a 	mov	r4,r2
 8000fac:	800620c0 	call	800620c <__mulsi3>
 8000fb0:	1007883a 	mov	r3,r2
 8000fb4:	e0bffd17 	ldw	r2,-12(fp)
 8000fb8:	10c5883a 	add	r2,r2,r3
 8000fbc:	00000706 	br	8000fdc <allocate_ship+0xa0>
ship_t* allocate_ship(scene_t* scene, int user) {
    ship_t* ships = ship_select(scene, user);
    if (ships == NULL)
        return NULL;
    
    for (int i = 0; i < USER_SHIPS; i++) {
 8000fc0:	e0bffc17 	ldw	r2,-16(fp)
 8000fc4:	10800044 	addi	r2,r2,1
 8000fc8:	e0bffc15 	stw	r2,-16(fp)
 8000fcc:	e0bffc17 	ldw	r2,-16(fp)
 8000fd0:	10800190 	cmplti	r2,r2,6
 8000fd4:	103fe91e 	bne	r2,zero,8000f7c <__alt_data_end+0xfc000f7c>
        if (ships[i].ptr == NULL)
            return &ships[i];
    }
    return NULL;
 8000fd8:	0005883a 	mov	r2,zero
}
 8000fdc:	e037883a 	mov	sp,fp
 8000fe0:	dfc00117 	ldw	ra,4(sp)
 8000fe4:	df000017 	ldw	fp,0(sp)
 8000fe8:	dec00204 	addi	sp,sp,8
 8000fec:	f800283a 	ret

08000ff0 <ship_count>:

int ship_count(scene_t* scene, int user) {
 8000ff0:	defff804 	addi	sp,sp,-32
 8000ff4:	dfc00715 	stw	ra,28(sp)
 8000ff8:	df000615 	stw	fp,24(sp)
 8000ffc:	dc000515 	stw	r16,20(sp)
 8001000:	df000604 	addi	fp,sp,24
 8001004:	e13ffd15 	stw	r4,-12(fp)
 8001008:	e17ffe15 	stw	r5,-8(fp)
    ship_t* ships = NULL;
 800100c:	e03ffa15 	stw	zero,-24(fp)

    switch (user) {
 8001010:	e0bffe17 	ldw	r2,-8(fp)
 8001014:	10000326 	beq	r2,zero,8001024 <ship_count+0x34>
 8001018:	10800060 	cmpeqi	r2,r2,1
 800101c:	1000051e 	bne	r2,zero,8001034 <ship_count+0x44>
 8001020:	00000806 	br	8001044 <ship_count+0x54>
        case PLAYER:
            ships = scene->ships.player;
 8001024:	e0bffd17 	ldw	r2,-12(fp)
 8001028:	10800704 	addi	r2,r2,28
 800102c:	e0bffa15 	stw	r2,-24(fp)
            break;
 8001030:	00000406 	br	8001044 <ship_count+0x54>
        case ENEMY:
            ships = scene->ships.enemy;
 8001034:	e0bffd17 	ldw	r2,-12(fp)
 8001038:	10806104 	addi	r2,r2,388
 800103c:	e0bffa15 	stw	r2,-24(fp)
            break;
 8001040:	0001883a 	nop
    }

    if (ships == NULL)
 8001044:	e0bffa17 	ldw	r2,-24(fp)
 8001048:	1000021e 	bne	r2,zero,8001054 <ship_count+0x64>
        return -1;
 800104c:	00bfffc4 	movi	r2,-1
 8001050:	00001606 	br	80010ac <ship_count+0xbc>
    
    int count = 0;
 8001054:	e03ffb15 	stw	zero,-20(fp)
    for (int i = 0; i < USER_SHIPS; i++) {
 8001058:	e03ffc15 	stw	zero,-16(fp)
 800105c:	00000f06 	br	800109c <ship_count+0xac>
        if (scene->ships.player[i].ptr != NULL)
 8001060:	e43ffd17 	ldw	r16,-12(fp)
 8001064:	e0bffc17 	ldw	r2,-16(fp)
 8001068:	01400f04 	movi	r5,60
 800106c:	1009883a 	mov	r4,r2
 8001070:	800620c0 	call	800620c <__mulsi3>
 8001074:	8085883a 	add	r2,r16,r2
 8001078:	10800704 	addi	r2,r2,28
 800107c:	10800017 	ldw	r2,0(r2)
 8001080:	10000326 	beq	r2,zero,8001090 <ship_count+0xa0>
            count++;
 8001084:	e0bffb17 	ldw	r2,-20(fp)
 8001088:	10800044 	addi	r2,r2,1
 800108c:	e0bffb15 	stw	r2,-20(fp)

    if (ships == NULL)
        return -1;
    
    int count = 0;
    for (int i = 0; i < USER_SHIPS; i++) {
 8001090:	e0bffc17 	ldw	r2,-16(fp)
 8001094:	10800044 	addi	r2,r2,1
 8001098:	e0bffc15 	stw	r2,-16(fp)
 800109c:	e0bffc17 	ldw	r2,-16(fp)
 80010a0:	10800190 	cmplti	r2,r2,6
 80010a4:	103fee1e 	bne	r2,zero,8001060 <__alt_data_end+0xfc001060>
        if (scene->ships.player[i].ptr != NULL)
            count++;
    }
    
    return count;
 80010a8:	e0bffb17 	ldw	r2,-20(fp)
}
 80010ac:	e6ffff04 	addi	sp,fp,-4
 80010b0:	dfc00217 	ldw	ra,8(sp)
 80010b4:	df000117 	ldw	fp,4(sp)
 80010b8:	dc000017 	ldw	r16,0(sp)
 80010bc:	dec00304 	addi	sp,sp,12
 80010c0:	f800283a 	ret

080010c4 <spawn_ship>:

ship_t* spawn_ship(scene_t* scene, const ship_t* spawn, int user, position_t pos) {
 80010c4:	defff804 	addi	sp,sp,-32
 80010c8:	dfc00615 	stw	ra,24(sp)
 80010cc:	df000515 	stw	fp,20(sp)
 80010d0:	df000504 	addi	fp,sp,20
 80010d4:	e13ffd15 	stw	r4,-12(fp)
 80010d8:	e17ffe15 	stw	r5,-8(fp)
 80010dc:	e1bfff15 	stw	r6,-4(fp)
 80010e0:	e1c00215 	stw	r7,8(fp)
    ship_t* ship = allocate_ship(scene, user);
 80010e4:	e17fff17 	ldw	r5,-4(fp)
 80010e8:	e13ffd17 	ldw	r4,-12(fp)
 80010ec:	8000f3c0 	call	8000f3c <allocate_ship>
 80010f0:	e0bffb15 	stw	r2,-20(fp)
    if (ship == NULL)
 80010f4:	e0bffb17 	ldw	r2,-20(fp)
 80010f8:	1000021e 	bne	r2,zero,8001104 <spawn_ship+0x40>
        return NULL;
 80010fc:	0005883a 	mov	r2,zero
 8001100:	00003b06 	br	80011f0 <spawn_ship+0x12c>
    
    game_object_t* obj = allocate_object(scene, SHIPS, USED | VISABLE | SCROLL | CENTERED);
 8001104:	018003c4 	movi	r6,15
 8001108:	01400044 	movi	r5,1
 800110c:	e13ffd17 	ldw	r4,-12(fp)
 8001110:	8000ac80 	call	8000ac8 <allocate_object>
 8001114:	e0bffc15 	stw	r2,-16(fp)
    if (obj == NULL)
 8001118:	e0bffc17 	ldw	r2,-16(fp)
 800111c:	1000021e 	bne	r2,zero,8001128 <spawn_ship+0x64>
        return NULL;
 8001120:	0005883a 	mov	r2,zero
 8001124:	00003206 	br	80011f0 <spawn_ship+0x12c>

    *ship       = *spawn;
 8001128:	e0fffb17 	ldw	r3,-20(fp)
 800112c:	e0bffe17 	ldw	r2,-8(fp)
 8001130:	1009883a 	mov	r4,r2
 8001134:	00800f04 	movi	r2,60
 8001138:	100d883a 	mov	r6,r2
 800113c:	200b883a 	mov	r5,r4
 8001140:	1809883a 	mov	r4,r3
 8001144:	800969c0 	call	800969c <memcpy>
    ship->ptr   = obj;
 8001148:	e0bffb17 	ldw	r2,-20(fp)
 800114c:	e0fffc17 	ldw	r3,-16(fp)
 8001150:	10c00015 	stw	r3,0(r2)
    obj->sprite = *ship->sprite;
 8001154:	e0bffb17 	ldw	r2,-20(fp)
 8001158:	10c00d17 	ldw	r3,52(r2)
 800115c:	e0bffc17 	ldw	r2,-16(fp)
 8001160:	19000017 	ldw	r4,0(r3)
 8001164:	11000315 	stw	r4,12(r2)
 8001168:	19000117 	ldw	r4,4(r3)
 800116c:	11000415 	stw	r4,16(r2)
 8001170:	19000217 	ldw	r4,8(r3)
 8001174:	11000515 	stw	r4,20(r2)
 8001178:	19000317 	ldw	r4,12(r3)
 800117c:	11000615 	stw	r4,24(r2)
 8001180:	19000417 	ldw	r4,16(r3)
 8001184:	11000715 	stw	r4,28(r2)
 8001188:	19000517 	ldw	r4,20(r3)
 800118c:	11000815 	stw	r4,32(r2)
 8001190:	19000617 	ldw	r4,24(r3)
 8001194:	11000915 	stw	r4,36(r2)
 8001198:	19000717 	ldw	r4,28(r3)
 800119c:	11000a15 	stw	r4,40(r2)
 80011a0:	18c00817 	ldw	r3,32(r3)
 80011a4:	10c00b15 	stw	r3,44(r2)
    obj->pos    = pos;
 80011a8:	e0bffc17 	ldw	r2,-16(fp)
 80011ac:	e0c00217 	ldw	r3,8(fp)
 80011b0:	10c00115 	stw	r3,4(r2)
 80011b4:	e0c00317 	ldw	r3,12(fp)
 80011b8:	10c00215 	stw	r3,8(r2)
    ship->physics.p.x = pos.x;
 80011bc:	e0800217 	ldw	r2,8(fp)
 80011c0:	1009883a 	mov	r4,r2
 80011c4:	80076440 	call	8007644 <__floatsisf>
 80011c8:	1007883a 	mov	r3,r2
 80011cc:	e0bffb17 	ldw	r2,-20(fp)
 80011d0:	10c00715 	stw	r3,28(r2)
    ship->physics.p.y = pos.y;
 80011d4:	e0800317 	ldw	r2,12(fp)
 80011d8:	1009883a 	mov	r4,r2
 80011dc:	80076440 	call	8007644 <__floatsisf>
 80011e0:	1007883a 	mov	r3,r2
 80011e4:	e0bffb17 	ldw	r2,-20(fp)
 80011e8:	10c00815 	stw	r3,32(r2)
    return ship;
 80011ec:	e0bffb17 	ldw	r2,-20(fp)
}
 80011f0:	e037883a 	mov	sp,fp
 80011f4:	dfc00117 	ldw	ra,4(sp)
 80011f8:	df000017 	ldw	fp,0(sp)
 80011fc:	dec00304 	addi	sp,sp,12
 8001200:	f800283a 	ret

08001204 <destroy_ship>:

void destroy_ship(ship_t* ship) {
 8001204:	defffd04 	addi	sp,sp,-12
 8001208:	dfc00215 	stw	ra,8(sp)
 800120c:	df000115 	stw	fp,4(sp)
 8001210:	df000104 	addi	fp,sp,4
 8001214:	e13fff15 	stw	r4,-4(fp)
    deallocate_object(ship->ptr);
 8001218:	e0bfff17 	ldw	r2,-4(fp)
 800121c:	10800017 	ldw	r2,0(r2)
 8001220:	1009883a 	mov	r4,r2
 8001224:	8000c900 	call	8000c90 <deallocate_object>
    ship->ptr = NULL;
 8001228:	e0bfff17 	ldw	r2,-4(fp)
 800122c:	10000015 	stw	zero,0(r2)

    // todo: spawn exposion??
}
 8001230:	0001883a 	nop
 8001234:	e037883a 	mov	sp,fp
 8001238:	dfc00117 	ldw	ra,4(sp)
 800123c:	df000017 	ldw	fp,0(sp)
 8001240:	dec00204 	addi	sp,sp,8
 8001244:	f800283a 	ret

08001248 <isqrt>:

int isqrt(int x) {
 8001248:	defffa04 	addi	sp,sp,-24
 800124c:	df000515 	stw	fp,20(sp)
 8001250:	df000504 	addi	fp,sp,20
 8001254:	e13fff15 	stw	r4,-4(fp)
    int temp, g = 0, b = 0x8000, shft = 15;
 8001258:	e03ffb15 	stw	zero,-20(fp)
 800125c:	00a00014 	movui	r2,32768
 8001260:	e0bffc15 	stw	r2,-16(fp)
 8001264:	008003c4 	movi	r2,15
 8001268:	e0bffd15 	stw	r2,-12(fp)
    do {
        if (x >= (temp = (((g << 1) + b) << shft--))) {
 800126c:	e0bffb17 	ldw	r2,-20(fp)
 8001270:	1085883a 	add	r2,r2,r2
 8001274:	1007883a 	mov	r3,r2
 8001278:	e0bffc17 	ldw	r2,-16(fp)
 800127c:	1887883a 	add	r3,r3,r2
 8001280:	e0bffd17 	ldw	r2,-12(fp)
 8001284:	113fffc4 	addi	r4,r2,-1
 8001288:	e13ffd15 	stw	r4,-12(fp)
 800128c:	1884983a 	sll	r2,r3,r2
 8001290:	e0bffe15 	stw	r2,-8(fp)
 8001294:	e0bffe17 	ldw	r2,-8(fp)
 8001298:	e0ffff17 	ldw	r3,-4(fp)
 800129c:	18800816 	blt	r3,r2,80012c0 <isqrt+0x78>
           g += b;
 80012a0:	e0fffb17 	ldw	r3,-20(fp)
 80012a4:	e0bffc17 	ldw	r2,-16(fp)
 80012a8:	1885883a 	add	r2,r3,r2
 80012ac:	e0bffb15 	stw	r2,-20(fp)
           x -= temp;
 80012b0:	e0ffff17 	ldw	r3,-4(fp)
 80012b4:	e0bffe17 	ldw	r2,-8(fp)
 80012b8:	1885c83a 	sub	r2,r3,r2
 80012bc:	e0bfff15 	stw	r2,-4(fp)
        }
    } while (b >>= 1);
 80012c0:	e0bffc17 	ldw	r2,-16(fp)
 80012c4:	1005d07a 	srai	r2,r2,1
 80012c8:	e0bffc15 	stw	r2,-16(fp)
 80012cc:	e0bffc17 	ldw	r2,-16(fp)
 80012d0:	103fe61e 	bne	r2,zero,800126c <__alt_data_end+0xfc00126c>
    return g;
 80012d4:	e0bffb17 	ldw	r2,-20(fp)
}
 80012d8:	e037883a 	mov	sp,fp
 80012dc:	df000017 	ldw	fp,0(sp)
 80012e0:	dec00104 	addi	sp,sp,4
 80012e4:	f800283a 	ret

080012e8 <distance>:

int distance(position_t p1, position_t p2) { return isqrt((p2.x - p1.x) * (p2.x - p1.x) + (p2.y - p1.y) * (p2.y - p1.y)); }
 80012e8:	defff904 	addi	sp,sp,-28
 80012ec:	dfc00615 	stw	ra,24(sp)
 80012f0:	df000515 	stw	fp,20(sp)
 80012f4:	dc000415 	stw	r16,16(sp)
 80012f8:	df000504 	addi	fp,sp,20
 80012fc:	e13ffb15 	stw	r4,-20(fp)
 8001300:	e17ffc15 	stw	r5,-16(fp)
 8001304:	e1bffd15 	stw	r6,-12(fp)
 8001308:	e1fffe15 	stw	r7,-8(fp)
 800130c:	e0fffd17 	ldw	r3,-12(fp)
 8001310:	e0bffb17 	ldw	r2,-20(fp)
 8001314:	1889c83a 	sub	r4,r3,r2
 8001318:	e0fffd17 	ldw	r3,-12(fp)
 800131c:	e0bffb17 	ldw	r2,-20(fp)
 8001320:	1885c83a 	sub	r2,r3,r2
 8001324:	100b883a 	mov	r5,r2
 8001328:	800620c0 	call	800620c <__mulsi3>
 800132c:	1021883a 	mov	r16,r2
 8001330:	e0fffe17 	ldw	r3,-8(fp)
 8001334:	e0bffc17 	ldw	r2,-16(fp)
 8001338:	1889c83a 	sub	r4,r3,r2
 800133c:	e0fffe17 	ldw	r3,-8(fp)
 8001340:	e0bffc17 	ldw	r2,-16(fp)
 8001344:	1885c83a 	sub	r2,r3,r2
 8001348:	100b883a 	mov	r5,r2
 800134c:	800620c0 	call	800620c <__mulsi3>
 8001350:	8085883a 	add	r2,r16,r2
 8001354:	1009883a 	mov	r4,r2
 8001358:	80012480 	call	8001248 <isqrt>
 800135c:	e6ffff04 	addi	sp,fp,-4
 8001360:	dfc00217 	ldw	ra,8(sp)
 8001364:	df000117 	ldw	fp,4(sp)
 8001368:	dc000017 	ldw	r16,0(sp)
 800136c:	dec00304 	addi	sp,sp,12
 8001370:	f800283a 	ret

08001374 <closest_ship>:

ship_t* closest_ship(scene_t* scene, int user, fposition_t pos) {
 8001374:	defff104 	addi	sp,sp,-60
 8001378:	dfc00e15 	stw	ra,56(sp)
 800137c:	df000d15 	stw	fp,52(sp)
 8001380:	df000d04 	addi	fp,sp,52
 8001384:	e13ffc15 	stw	r4,-16(fp)
 8001388:	e17ffd15 	stw	r5,-12(fp)
 800138c:	e1bffe15 	stw	r6,-8(fp)
 8001390:	e1ffff15 	stw	r7,-4(fp)
    ship_t* ships = ship_select(scene, user);
 8001394:	e17ffd17 	ldw	r5,-12(fp)
 8001398:	e13ffc17 	ldw	r4,-16(fp)
 800139c:	8000ee80 	call	8000ee8 <ship_select>
 80013a0:	e0bff615 	stw	r2,-40(fp)
    if (ships == NULL)
 80013a4:	e0bff617 	ldw	r2,-40(fp)
 80013a8:	1000021e 	bne	r2,zero,80013b4 <closest_ship+0x40>
        return NULL;
 80013ac:	0005883a 	mov	r2,zero
 80013b0:	00004d06 	br	80014e8 <closest_ship+0x174>
    
    position_t p = { pos.x, pos.y };
 80013b4:	e0bffe17 	ldw	r2,-8(fp)
 80013b8:	1009883a 	mov	r4,r2
 80013bc:	80075d40 	call	80075d4 <__fixsfsi>
 80013c0:	e0bff815 	stw	r2,-32(fp)
 80013c4:	e0bfff17 	ldw	r2,-4(fp)
 80013c8:	1009883a 	mov	r4,r2
 80013cc:	80075d40 	call	80075d4 <__fixsfsi>
 80013d0:	e0bff915 	stw	r2,-28(fp)
    
    int idx = -1;
 80013d4:	00bfffc4 	movi	r2,-1
 80013d8:	e0bff315 	stw	r2,-52(fp)
    int lowest, dist;
    for (int i = 0; i < USER_SHIPS; i++) {
 80013dc:	e03ff515 	stw	zero,-44(fp)
 80013e0:	00003206 	br	80014ac <closest_ship+0x138>
        if (ships[i].ptr != NULL) {
 80013e4:	e0bff517 	ldw	r2,-44(fp)
 80013e8:	01400f04 	movi	r5,60
 80013ec:	1009883a 	mov	r4,r2
 80013f0:	800620c0 	call	800620c <__mulsi3>
 80013f4:	1007883a 	mov	r3,r2
 80013f8:	e0bff617 	ldw	r2,-40(fp)
 80013fc:	10c5883a 	add	r2,r2,r3
 8001400:	10800017 	ldw	r2,0(r2)
 8001404:	10002626 	beq	r2,zero,80014a0 <closest_ship+0x12c>
            position_t sp = { ships[i].physics.p.x, ships[i].physics.p.y };
 8001408:	e0bff517 	ldw	r2,-44(fp)
 800140c:	01400f04 	movi	r5,60
 8001410:	1009883a 	mov	r4,r2
 8001414:	800620c0 	call	800620c <__mulsi3>
 8001418:	1007883a 	mov	r3,r2
 800141c:	e0bff617 	ldw	r2,-40(fp)
 8001420:	10c5883a 	add	r2,r2,r3
 8001424:	10c00717 	ldw	r3,28(r2)
 8001428:	1809883a 	mov	r4,r3
 800142c:	80075d40 	call	80075d4 <__fixsfsi>
 8001430:	e0bffa15 	stw	r2,-24(fp)
 8001434:	e0bff517 	ldw	r2,-44(fp)
 8001438:	01400f04 	movi	r5,60
 800143c:	1009883a 	mov	r4,r2
 8001440:	800620c0 	call	800620c <__mulsi3>
 8001444:	1007883a 	mov	r3,r2
 8001448:	e0bff617 	ldw	r2,-40(fp)
 800144c:	10c5883a 	add	r2,r2,r3
 8001450:	10c00817 	ldw	r3,32(r2)
 8001454:	1809883a 	mov	r4,r3
 8001458:	80075d40 	call	80075d4 <__fixsfsi>
 800145c:	e0bffb15 	stw	r2,-20(fp)
            dist = distance(p, sp);
 8001460:	e1bffa17 	ldw	r6,-24(fp)
 8001464:	e1fffb17 	ldw	r7,-20(fp)
 8001468:	e13ff817 	ldw	r4,-32(fp)
 800146c:	e17ff917 	ldw	r5,-28(fp)
 8001470:	80012e80 	call	80012e8 <distance>
 8001474:	e0bff715 	stw	r2,-36(fp)
            if (idx == -1 || dist < lowest) {
 8001478:	e0bff317 	ldw	r2,-52(fp)
 800147c:	10bfffe0 	cmpeqi	r2,r2,-1
 8001480:	1000031e 	bne	r2,zero,8001490 <closest_ship+0x11c>
 8001484:	e0fff717 	ldw	r3,-36(fp)
 8001488:	e0bff417 	ldw	r2,-48(fp)
 800148c:	1880040e 	bge	r3,r2,80014a0 <closest_ship+0x12c>
                idx = i;
 8001490:	e0bff517 	ldw	r2,-44(fp)
 8001494:	e0bff315 	stw	r2,-52(fp)
                lowest = dist;
 8001498:	e0bff717 	ldw	r2,-36(fp)
 800149c:	e0bff415 	stw	r2,-48(fp)
    
    position_t p = { pos.x, pos.y };
    
    int idx = -1;
    int lowest, dist;
    for (int i = 0; i < USER_SHIPS; i++) {
 80014a0:	e0bff517 	ldw	r2,-44(fp)
 80014a4:	10800044 	addi	r2,r2,1
 80014a8:	e0bff515 	stw	r2,-44(fp)
 80014ac:	e0bff517 	ldw	r2,-44(fp)
 80014b0:	10800190 	cmplti	r2,r2,6
 80014b4:	103fcb1e 	bne	r2,zero,80013e4 <__alt_data_end+0xfc0013e4>
                idx = i;
                lowest = dist;
            }
        }
    }
    if (idx == -1)
 80014b8:	e0bff317 	ldw	r2,-52(fp)
 80014bc:	10bfffd8 	cmpnei	r2,r2,-1
 80014c0:	1000021e 	bne	r2,zero,80014cc <closest_ship+0x158>
    	return NULL;
 80014c4:	0005883a 	mov	r2,zero
 80014c8:	00000706 	br	80014e8 <closest_ship+0x174>
    return &ships[idx];
 80014cc:	e0bff317 	ldw	r2,-52(fp)
 80014d0:	01400f04 	movi	r5,60
 80014d4:	1009883a 	mov	r4,r2
 80014d8:	800620c0 	call	800620c <__mulsi3>
 80014dc:	1007883a 	mov	r3,r2
 80014e0:	e0bff617 	ldw	r2,-40(fp)
 80014e4:	10c5883a 	add	r2,r2,r3
}
 80014e8:	e037883a 	mov	sp,fp
 80014ec:	dfc00117 	ldw	ra,4(sp)
 80014f0:	df000017 	ldw	fp,0(sp)
 80014f4:	dec00204 	addi	sp,sp,8
 80014f8:	f800283a 	ret

080014fc <update_ships>:

void update_ships(scene_t* scene, int user, float dt) {
 80014fc:	defff104 	addi	sp,sp,-60
 8001500:	dfc00e15 	stw	ra,56(sp)
 8001504:	df000d15 	stw	fp,52(sp)
 8001508:	dc000c15 	stw	r16,48(sp)
 800150c:	df000d04 	addi	fp,sp,52
 8001510:	e13ffc15 	stw	r4,-16(fp)
 8001514:	e17ffd15 	stw	r5,-12(fp)
 8001518:	e1bffe15 	stw	r6,-8(fp)
    ship_t* ships;
    position_t enemy_planet_pos;
    switch (user) {
 800151c:	e0bffd17 	ldw	r2,-12(fp)
 8001520:	10000326 	beq	r2,zero,8001530 <update_ships+0x34>
 8001524:	10800060 	cmpeqi	r2,r2,1
 8001528:	10000b1e 	bne	r2,zero,8001558 <update_ships+0x5c>
            ships = scene->ships.enemy;
            enemy_planet_pos.x = (int) scene->objects.typed.background[1].pos.x;
            enemy_planet_pos.y = (int) scene->objects.typed.background[1].pos.y;
            break;
        default:
            return;
 800152c:	00012906 	br	80019d4 <update_ships+0x4d8>
void update_ships(scene_t* scene, int user, float dt) {
    ship_t* ships;
    position_t enemy_planet_pos;
    switch (user) {
        case PLAYER:
            ships = scene->ships.player;
 8001530:	e0bffc17 	ldw	r2,-16(fp)
 8001534:	10800704 	addi	r2,r2,28
 8001538:	e0bff315 	stw	r2,-52(fp)
            enemy_planet_pos.x = (int) scene->objects.typed.background[2].pos.x;
 800153c:	e0bffc17 	ldw	r2,-16(fp)
 8001540:	1081b017 	ldw	r2,1728(r2)
 8001544:	e0bff615 	stw	r2,-40(fp)
            enemy_planet_pos.y = (int) scene->objects.typed.background[2].pos.y;
 8001548:	e0bffc17 	ldw	r2,-16(fp)
 800154c:	1081b117 	ldw	r2,1732(r2)
 8001550:	e0bff715 	stw	r2,-36(fp)
            break;
 8001554:	00000a06 	br	8001580 <update_ships+0x84>
        case ENEMY:
            ships = scene->ships.enemy;
 8001558:	e0bffc17 	ldw	r2,-16(fp)
 800155c:	10806104 	addi	r2,r2,388
 8001560:	e0bff315 	stw	r2,-52(fp)
            enemy_planet_pos.x = (int) scene->objects.typed.background[1].pos.x;
 8001564:	e0bffc17 	ldw	r2,-16(fp)
 8001568:	1081a417 	ldw	r2,1680(r2)
 800156c:	e0bff615 	stw	r2,-40(fp)
            enemy_planet_pos.y = (int) scene->objects.typed.background[1].pos.y;
 8001570:	e0bffc17 	ldw	r2,-16(fp)
 8001574:	1081a517 	ldw	r2,1684(r2)
 8001578:	e0bff715 	stw	r2,-36(fp)
            break;
 800157c:	0001883a 	nop
        default:
            return;
    }
    for (int i = 0; i < USER_SHIPS; i++) {
 8001580:	e03ff415 	stw	zero,-48(fp)
 8001584:	00011006 	br	80019c8 <update_ships+0x4cc>
        if (ships[i].ptr != NULL) {
 8001588:	e0bff417 	ldw	r2,-48(fp)
 800158c:	01400f04 	movi	r5,60
 8001590:	1009883a 	mov	r4,r2
 8001594:	800620c0 	call	800620c <__mulsi3>
 8001598:	1007883a 	mov	r3,r2
 800159c:	e0bff317 	ldw	r2,-52(fp)
 80015a0:	10c5883a 	add	r2,r2,r3
 80015a4:	10800017 	ldw	r2,0(r2)
 80015a8:	10010426 	beq	r2,zero,80019bc <update_ships+0x4c0>
            update_physics(&ships[i].physics, dt);
 80015ac:	e0bff417 	ldw	r2,-48(fp)
 80015b0:	01400f04 	movi	r5,60
 80015b4:	1009883a 	mov	r4,r2
 80015b8:	800620c0 	call	800620c <__mulsi3>
 80015bc:	1007883a 	mov	r3,r2
 80015c0:	e0bff317 	ldw	r2,-52(fp)
 80015c4:	10c5883a 	add	r2,r2,r3
 80015c8:	10800704 	addi	r2,r2,28
 80015cc:	e17ffe17 	ldw	r5,-8(fp)
 80015d0:	1009883a 	mov	r4,r2
 80015d4:	800003c0 	call	800003c <update_physics>
            cap_velocity(&ships[i].physics, ships[i].max_v);
 80015d8:	e0bff417 	ldw	r2,-48(fp)
 80015dc:	01400f04 	movi	r5,60
 80015e0:	1009883a 	mov	r4,r2
 80015e4:	800620c0 	call	800620c <__mulsi3>
 80015e8:	1007883a 	mov	r3,r2
 80015ec:	e0bff317 	ldw	r2,-52(fp)
 80015f0:	10c5883a 	add	r2,r2,r3
 80015f4:	14000704 	addi	r16,r2,28
 80015f8:	e0bff417 	ldw	r2,-48(fp)
 80015fc:	01400f04 	movi	r5,60
 8001600:	1009883a 	mov	r4,r2
 8001604:	800620c0 	call	800620c <__mulsi3>
 8001608:	1007883a 	mov	r3,r2
 800160c:	e0bff317 	ldw	r2,-52(fp)
 8001610:	10c5883a 	add	r2,r2,r3
 8001614:	10c00417 	ldw	r3,16(r2)
 8001618:	180b883a 	mov	r5,r3
 800161c:	8009883a 	mov	r4,r16
 8001620:	80001740 	call	8000174 <cap_velocity>

            position_t p = { ships[i].physics.p.x, ships[i].physics.p.y };
 8001624:	e0bff417 	ldw	r2,-48(fp)
 8001628:	01400f04 	movi	r5,60
 800162c:	1009883a 	mov	r4,r2
 8001630:	800620c0 	call	800620c <__mulsi3>
 8001634:	1007883a 	mov	r3,r2
 8001638:	e0bff317 	ldw	r2,-52(fp)
 800163c:	10c5883a 	add	r2,r2,r3
 8001640:	10c00717 	ldw	r3,28(r2)
 8001644:	1809883a 	mov	r4,r3
 8001648:	80075d40 	call	80075d4 <__fixsfsi>
 800164c:	e0bff815 	stw	r2,-32(fp)
 8001650:	e0bff417 	ldw	r2,-48(fp)
 8001654:	01400f04 	movi	r5,60
 8001658:	1009883a 	mov	r4,r2
 800165c:	800620c0 	call	800620c <__mulsi3>
 8001660:	1007883a 	mov	r3,r2
 8001664:	e0bff317 	ldw	r2,-52(fp)
 8001668:	10c5883a 	add	r2,r2,r3
 800166c:	10c00817 	ldw	r3,32(r2)
 8001670:	1809883a 	mov	r4,r3
 8001674:	80075d40 	call	80075d4 <__fixsfsi>
 8001678:	e0bff915 	stw	r2,-28(fp)

            if (distance(p, enemy_planet_pos) < ships[i].range)
 800167c:	e1bff617 	ldw	r6,-40(fp)
 8001680:	e1fff717 	ldw	r7,-36(fp)
 8001684:	e13ff817 	ldw	r4,-32(fp)
 8001688:	e17ff917 	ldw	r5,-28(fp)
 800168c:	80012e80 	call	80012e8 <distance>
 8001690:	1009883a 	mov	r4,r2
 8001694:	80076440 	call	8007644 <__floatsisf>
 8001698:	1021883a 	mov	r16,r2
 800169c:	e0bff417 	ldw	r2,-48(fp)
 80016a0:	01400f04 	movi	r5,60
 80016a4:	1009883a 	mov	r4,r2
 80016a8:	800620c0 	call	800620c <__mulsi3>
 80016ac:	1007883a 	mov	r3,r2
 80016b0:	e0bff317 	ldw	r2,-52(fp)
 80016b4:	10c5883a 	add	r2,r2,r3
 80016b8:	10c00217 	ldw	r3,8(r2)
 80016bc:	180b883a 	mov	r5,r3
 80016c0:	8009883a 	mov	r4,r16
 80016c4:	8006bf80 	call	8006bf8 <__lesf2>
 80016c8:	1000140e 	bge	r2,zero,800171c <update_ships+0x220>
                slow_down(&ships[i].physics, ships[i].accel);
 80016cc:	e0bff417 	ldw	r2,-48(fp)
 80016d0:	01400f04 	movi	r5,60
 80016d4:	1009883a 	mov	r4,r2
 80016d8:	800620c0 	call	800620c <__mulsi3>
 80016dc:	1007883a 	mov	r3,r2
 80016e0:	e0bff317 	ldw	r2,-52(fp)
 80016e4:	10c5883a 	add	r2,r2,r3
 80016e8:	14000704 	addi	r16,r2,28
 80016ec:	e0bff417 	ldw	r2,-48(fp)
 80016f0:	01400f04 	movi	r5,60
 80016f4:	1009883a 	mov	r4,r2
 80016f8:	800620c0 	call	800620c <__mulsi3>
 80016fc:	1007883a 	mov	r3,r2
 8001700:	e0bff317 	ldw	r2,-52(fp)
 8001704:	10c5883a 	add	r2,r2,r3
 8001708:	10c00317 	ldw	r3,12(r2)
 800170c:	180b883a 	mov	r5,r3
 8001710:	8009883a 	mov	r4,r16
 8001714:	80002580 	call	8000258 <slow_down>
 8001718:	00005c06 	br	800188c <update_ships+0x390>
            else {
                ship_t* enemy = closest_ship(scene, !user, ships[i].physics.p);
 800171c:	e0bffd17 	ldw	r2,-12(fp)
 8001720:	1005003a 	cmpeq	r2,r2,zero
 8001724:	14003fcc 	andi	r16,r2,255
 8001728:	e0bff417 	ldw	r2,-48(fp)
 800172c:	01400f04 	movi	r5,60
 8001730:	1009883a 	mov	r4,r2
 8001734:	800620c0 	call	800620c <__mulsi3>
 8001738:	1007883a 	mov	r3,r2
 800173c:	e0bff317 	ldw	r2,-52(fp)
 8001740:	10c5883a 	add	r2,r2,r3
 8001744:	11800717 	ldw	r6,28(r2)
 8001748:	11c00817 	ldw	r7,32(r2)
 800174c:	800b883a 	mov	r5,r16
 8001750:	e13ffc17 	ldw	r4,-16(fp)
 8001754:	80013740 	call	8001374 <closest_ship>
 8001758:	e0bff515 	stw	r2,-44(fp)
                position_t epos = { enemy->physics.p.x, enemy->physics.p.y };
 800175c:	e0bff517 	ldw	r2,-44(fp)
 8001760:	10c00717 	ldw	r3,28(r2)
 8001764:	1809883a 	mov	r4,r3
 8001768:	80075d40 	call	80075d4 <__fixsfsi>
 800176c:	e0bffa15 	stw	r2,-24(fp)
 8001770:	e0bff517 	ldw	r2,-44(fp)
 8001774:	10c00817 	ldw	r3,32(r2)
 8001778:	1809883a 	mov	r4,r3
 800177c:	80075d40 	call	80075d4 <__fixsfsi>
 8001780:	e0bffb15 	stw	r2,-20(fp)
                if (enemy == NULL || distance(p, epos) > ships[i].range) {
 8001784:	e0bff517 	ldw	r2,-44(fp)
 8001788:	10001426 	beq	r2,zero,80017dc <update_ships+0x2e0>
 800178c:	e1bffa17 	ldw	r6,-24(fp)
 8001790:	e1fffb17 	ldw	r7,-20(fp)
 8001794:	e13ff817 	ldw	r4,-32(fp)
 8001798:	e17ff917 	ldw	r5,-28(fp)
 800179c:	80012e80 	call	80012e8 <distance>
 80017a0:	1009883a 	mov	r4,r2
 80017a4:	80076440 	call	8007644 <__floatsisf>
 80017a8:	1021883a 	mov	r16,r2
 80017ac:	e0bff417 	ldw	r2,-48(fp)
 80017b0:	01400f04 	movi	r5,60
 80017b4:	1009883a 	mov	r4,r2
 80017b8:	800620c0 	call	800620c <__mulsi3>
 80017bc:	1007883a 	mov	r3,r2
 80017c0:	e0bff317 	ldw	r2,-52(fp)
 80017c4:	10c5883a 	add	r2,r2,r3
 80017c8:	10c00217 	ldw	r3,8(r2)
 80017cc:	180b883a 	mov	r5,r3
 80017d0:	8009883a 	mov	r4,r16
 80017d4:	8006b3c0 	call	8006b3c <__gesf2>
 80017d8:	0080190e 	bge	zero,r2,8001840 <update_ships+0x344>
                    ships[i].physics.a.x = ships[i].accel;
 80017dc:	e0bff417 	ldw	r2,-48(fp)
 80017e0:	01400f04 	movi	r5,60
 80017e4:	1009883a 	mov	r4,r2
 80017e8:	800620c0 	call	800620c <__mulsi3>
 80017ec:	1007883a 	mov	r3,r2
 80017f0:	e0bff317 	ldw	r2,-52(fp)
 80017f4:	10e1883a 	add	r16,r2,r3
 80017f8:	e0bff417 	ldw	r2,-48(fp)
 80017fc:	01400f04 	movi	r5,60
 8001800:	1009883a 	mov	r4,r2
 8001804:	800620c0 	call	800620c <__mulsi3>
 8001808:	1007883a 	mov	r3,r2
 800180c:	e0bff317 	ldw	r2,-52(fp)
 8001810:	10c7883a 	add	r3,r2,r3
 8001814:	18800317 	ldw	r2,12(r3)
 8001818:	80800b15 	stw	r2,44(r16)
                    ships[i].physics.a.y = 0;
 800181c:	e0bff417 	ldw	r2,-48(fp)
 8001820:	01400f04 	movi	r5,60
 8001824:	1009883a 	mov	r4,r2
 8001828:	800620c0 	call	800620c <__mulsi3>
 800182c:	1007883a 	mov	r3,r2
 8001830:	e0bff317 	ldw	r2,-52(fp)
 8001834:	10c5883a 	add	r2,r2,r3
 8001838:	10000c15 	stw	zero,48(r2)
 800183c:	00001306 	br	800188c <update_ships+0x390>
                } else {
                    slow_down(&ships[i].physics, ships[i].accel);
 8001840:	e0bff417 	ldw	r2,-48(fp)
 8001844:	01400f04 	movi	r5,60
 8001848:	1009883a 	mov	r4,r2
 800184c:	800620c0 	call	800620c <__mulsi3>
 8001850:	1007883a 	mov	r3,r2
 8001854:	e0bff317 	ldw	r2,-52(fp)
 8001858:	10c5883a 	add	r2,r2,r3
 800185c:	14000704 	addi	r16,r2,28
 8001860:	e0bff417 	ldw	r2,-48(fp)
 8001864:	01400f04 	movi	r5,60
 8001868:	1009883a 	mov	r4,r2
 800186c:	800620c0 	call	800620c <__mulsi3>
 8001870:	1007883a 	mov	r3,r2
 8001874:	e0bff317 	ldw	r2,-52(fp)
 8001878:	10c5883a 	add	r2,r2,r3
 800187c:	10c00317 	ldw	r3,12(r2)
 8001880:	180b883a 	mov	r5,r3
 8001884:	8009883a 	mov	r4,r16
 8001888:	80002580 	call	8000258 <slow_down>
                }
                    
            }
            
            ships[i].ptr->pos.x = (int) ships[i].physics.p.x;
 800188c:	e0bff417 	ldw	r2,-48(fp)
 8001890:	01400f04 	movi	r5,60
 8001894:	1009883a 	mov	r4,r2
 8001898:	800620c0 	call	800620c <__mulsi3>
 800189c:	1007883a 	mov	r3,r2
 80018a0:	e0bff317 	ldw	r2,-52(fp)
 80018a4:	10c5883a 	add	r2,r2,r3
 80018a8:	14000017 	ldw	r16,0(r2)
 80018ac:	e0bff417 	ldw	r2,-48(fp)
 80018b0:	01400f04 	movi	r5,60
 80018b4:	1009883a 	mov	r4,r2
 80018b8:	800620c0 	call	800620c <__mulsi3>
 80018bc:	1007883a 	mov	r3,r2
 80018c0:	e0bff317 	ldw	r2,-52(fp)
 80018c4:	10c5883a 	add	r2,r2,r3
 80018c8:	10c00717 	ldw	r3,28(r2)
 80018cc:	1809883a 	mov	r4,r3
 80018d0:	80075d40 	call	80075d4 <__fixsfsi>
 80018d4:	80800115 	stw	r2,4(r16)
            ships[i].ptr->pos.y = (int) ships[i].physics.p.y;
 80018d8:	e0bff417 	ldw	r2,-48(fp)
 80018dc:	01400f04 	movi	r5,60
 80018e0:	1009883a 	mov	r4,r2
 80018e4:	800620c0 	call	800620c <__mulsi3>
 80018e8:	1007883a 	mov	r3,r2
 80018ec:	e0bff317 	ldw	r2,-52(fp)
 80018f0:	10c5883a 	add	r2,r2,r3
 80018f4:	14000017 	ldw	r16,0(r2)
 80018f8:	e0bff417 	ldw	r2,-48(fp)
 80018fc:	01400f04 	movi	r5,60
 8001900:	1009883a 	mov	r4,r2
 8001904:	800620c0 	call	800620c <__mulsi3>
 8001908:	1007883a 	mov	r3,r2
 800190c:	e0bff317 	ldw	r2,-52(fp)
 8001910:	10c5883a 	add	r2,r2,r3
 8001914:	10c00817 	ldw	r3,32(r2)
 8001918:	1809883a 	mov	r4,r3
 800191c:	80075d40 	call	80075d4 <__fixsfsi>
 8001920:	80800215 	stw	r2,8(r16)

            if (ships[i].physics.p.x > scene->max.x || ships[i].physics.p.x < 0)
 8001924:	e0bff417 	ldw	r2,-48(fp)
 8001928:	01400f04 	movi	r5,60
 800192c:	1009883a 	mov	r4,r2
 8001930:	800620c0 	call	800620c <__mulsi3>
 8001934:	1007883a 	mov	r3,r2
 8001938:	e0bff317 	ldw	r2,-52(fp)
 800193c:	10c5883a 	add	r2,r2,r3
 8001940:	14000717 	ldw	r16,28(r2)
 8001944:	e0bffc17 	ldw	r2,-16(fp)
 8001948:	10800517 	ldw	r2,20(r2)
 800194c:	1009883a 	mov	r4,r2
 8001950:	80076440 	call	8007644 <__floatsisf>
 8001954:	1007883a 	mov	r3,r2
 8001958:	180b883a 	mov	r5,r3
 800195c:	8009883a 	mov	r4,r16
 8001960:	8006b3c0 	call	8006b3c <__gesf2>
 8001964:	00800c16 	blt	zero,r2,8001998 <update_ships+0x49c>
 8001968:	e0bff417 	ldw	r2,-48(fp)
 800196c:	01400f04 	movi	r5,60
 8001970:	1009883a 	mov	r4,r2
 8001974:	800620c0 	call	800620c <__mulsi3>
 8001978:	1007883a 	mov	r3,r2
 800197c:	e0bff317 	ldw	r2,-52(fp)
 8001980:	10c5883a 	add	r2,r2,r3
 8001984:	10c00717 	ldw	r3,28(r2)
 8001988:	000b883a 	mov	r5,zero
 800198c:	1809883a 	mov	r4,r3
 8001990:	8006bf80 	call	8006bf8 <__lesf2>
 8001994:	1000090e 	bge	r2,zero,80019bc <update_ships+0x4c0>
                destroy_ship(&ships[i]);
 8001998:	e0bff417 	ldw	r2,-48(fp)
 800199c:	01400f04 	movi	r5,60
 80019a0:	1009883a 	mov	r4,r2
 80019a4:	800620c0 	call	800620c <__mulsi3>
 80019a8:	1007883a 	mov	r3,r2
 80019ac:	e0bff317 	ldw	r2,-52(fp)
 80019b0:	10c5883a 	add	r2,r2,r3
 80019b4:	1009883a 	mov	r4,r2
 80019b8:	80012040 	call	8001204 <destroy_ship>
            enemy_planet_pos.y = (int) scene->objects.typed.background[1].pos.y;
            break;
        default:
            return;
    }
    for (int i = 0; i < USER_SHIPS; i++) {
 80019bc:	e0bff417 	ldw	r2,-48(fp)
 80019c0:	10800044 	addi	r2,r2,1
 80019c4:	e0bff415 	stw	r2,-48(fp)
 80019c8:	e0bff417 	ldw	r2,-48(fp)
 80019cc:	10800190 	cmplti	r2,r2,6
 80019d0:	103eed1e 	bne	r2,zero,8001588 <__alt_data_end+0xfc001588>

            if (ships[i].physics.p.x > scene->max.x || ships[i].physics.p.x < 0)
                destroy_ship(&ships[i]);
        }
    }
}
 80019d4:	e6ffff04 	addi	sp,fp,-4
 80019d8:	dfc00217 	ldw	ra,8(sp)
 80019dc:	df000117 	ldw	fp,4(sp)
 80019e0:	dc000017 	ldw	r16,0(sp)
 80019e4:	dec00304 	addi	sp,sp,12
 80019e8:	f800283a 	ret

080019ec <update_game>:

void update_game(scene_t* scene) {
 80019ec:	defffb04 	addi	sp,sp,-20
 80019f0:	dfc00415 	stw	ra,16(sp)
 80019f4:	df000315 	stw	fp,12(sp)
 80019f8:	df000304 	addi	fp,sp,12
 80019fc:	e13fff15 	stw	r4,-4(fp)
    float time = get_time();
 8001a00:	80035400 	call	8003540 <get_time>
 8001a04:	e0bffd15 	stw	r2,-12(fp)
    float dt = time - scene->last_update;
 8001a08:	e0bfff17 	ldw	r2,-4(fp)
 8001a0c:	10c00017 	ldw	r3,0(r2)
 8001a10:	180b883a 	mov	r5,r3
 8001a14:	e13ffd17 	ldw	r4,-12(fp)
 8001a18:	80070f00 	call	80070f0 <__subsf3>
 8001a1c:	1007883a 	mov	r3,r2
 8001a20:	e0fffe15 	stw	r3,-8(fp)
    scene->last_update = time;
 8001a24:	e0bfff17 	ldw	r2,-4(fp)
 8001a28:	e0fffd17 	ldw	r3,-12(fp)
 8001a2c:	10c00015 	stw	r3,0(r2)
    update_ships(scene, PLAYER, dt);
 8001a30:	e1bffe17 	ldw	r6,-8(fp)
 8001a34:	000b883a 	mov	r5,zero
 8001a38:	e13fff17 	ldw	r4,-4(fp)
 8001a3c:	80014fc0 	call	80014fc <update_ships>
    update_ships(scene, ENEMY, dt);
 8001a40:	e1bffe17 	ldw	r6,-8(fp)
 8001a44:	01400044 	movi	r5,1
 8001a48:	e13fff17 	ldw	r4,-4(fp)
 8001a4c:	80014fc0 	call	80014fc <update_ships>
}
 8001a50:	0001883a 	nop
 8001a54:	e037883a 	mov	sp,fp
 8001a58:	dfc00117 	ldw	ra,4(sp)
 8001a5c:	df000017 	ldw	fp,0(sp)
 8001a60:	dec00204 	addi	sp,sp,8
 8001a64:	f800283a 	ret

08001a68 <gdu_run>:
    gdu_sprite_t    sprites[MAX_SPRITES];
} gdu_memory_t;

static volatile gdu_memory_t* gdu_mem = (gdu_memory_t*) GDU_MEM_LOCATION;

int gdu_run() {
 8001a68:	deffff04 	addi	sp,sp,-4
 8001a6c:	df000015 	stw	fp,0(sp)
 8001a70:	d839883a 	mov	fp,sp
    if (gdu_mem->running)
 8001a74:	d0a00017 	ldw	r2,-32768(gp)
 8001a78:	10800017 	ldw	r2,0(r2)
 8001a7c:	10000226 	beq	r2,zero,8001a88 <gdu_run+0x20>
        return 0;
 8001a80:	0005883a 	mov	r2,zero
 8001a84:	00000406 	br	8001a98 <gdu_run+0x30>
    gdu_mem->running = 1;
 8001a88:	d0a00017 	ldw	r2,-32768(gp)
 8001a8c:	00c00044 	movi	r3,1
 8001a90:	10c00015 	stw	r3,0(r2)
    return 1;
 8001a94:	00800044 	movi	r2,1
}
 8001a98:	e037883a 	mov	sp,fp
 8001a9c:	df000017 	ldw	fp,0(sp)
 8001aa0:	dec00104 	addi	sp,sp,4
 8001aa4:	f800283a 	ret

08001aa8 <gdu_is_running>:

int gdu_is_running() { return gdu_mem->running; }
 8001aa8:	deffff04 	addi	sp,sp,-4
 8001aac:	df000015 	stw	fp,0(sp)
 8001ab0:	d839883a 	mov	fp,sp
 8001ab4:	d0a00017 	ldw	r2,-32768(gp)
 8001ab8:	10800017 	ldw	r2,0(r2)
 8001abc:	e037883a 	mov	sp,fp
 8001ac0:	df000017 	ldw	fp,0(sp)
 8001ac4:	dec00104 	addi	sp,sp,4
 8001ac8:	f800283a 	ret

08001acc <gdu_reset>:

void gdu_reset() {
 8001acc:	defffd04 	addi	sp,sp,-12
 8001ad0:	dfc00215 	stw	ra,8(sp)
 8001ad4:	df000115 	stw	fp,4(sp)
 8001ad8:	df000104 	addi	fp,sp,4
    for (int i = 0; i < MAX_SPRITES; i++)
 8001adc:	e03fff15 	stw	zero,-4(fp)
 8001ae0:	00000506 	br	8001af8 <gdu_reset+0x2c>
        pop_sprite(i);
 8001ae4:	e13fff17 	ldw	r4,-4(fp)
 8001ae8:	8001c840 	call	8001c84 <pop_sprite>
}

int gdu_is_running() { return gdu_mem->running; }

void gdu_reset() {
    for (int i = 0; i < MAX_SPRITES; i++)
 8001aec:	e0bfff17 	ldw	r2,-4(fp)
 8001af0:	10800044 	addi	r2,r2,1
 8001af4:	e0bfff15 	stw	r2,-4(fp)
 8001af8:	e0bfff17 	ldw	r2,-4(fp)
 8001afc:	10801010 	cmplti	r2,r2,64
 8001b00:	103ff81e 	bne	r2,zero,8001ae4 <__alt_data_end+0xfc001ae4>
        pop_sprite(i);
}
 8001b04:	0001883a 	nop
 8001b08:	e037883a 	mov	sp,fp
 8001b0c:	dfc00117 	ldw	ra,4(sp)
 8001b10:	df000017 	ldw	fp,0(sp)
 8001b14:	dec00204 	addi	sp,sp,8
 8001b18:	f800283a 	ret

08001b1c <gdu_set_frame>:

void gdu_set_frame(uint16_t* frame) { gdu_mem->frame_address = frame; }
 8001b1c:	defffe04 	addi	sp,sp,-8
 8001b20:	df000115 	stw	fp,4(sp)
 8001b24:	df000104 	addi	fp,sp,4
 8001b28:	e13fff15 	stw	r4,-4(fp)
 8001b2c:	d0a00017 	ldw	r2,-32768(gp)
 8001b30:	e0ffff17 	ldw	r3,-4(fp)
 8001b34:	10c00115 	stw	r3,4(r2)
 8001b38:	0001883a 	nop
 8001b3c:	e037883a 	mov	sp,fp
 8001b40:	df000017 	ldw	fp,0(sp)
 8001b44:	dec00104 	addi	sp,sp,4
 8001b48:	f800283a 	ret

08001b4c <convert_sprite>:

void convert_sprite(volatile gdu_sprite_t* gdu_sprite, sprite_t* sprite) {
 8001b4c:	defffd04 	addi	sp,sp,-12
 8001b50:	df000215 	stw	fp,8(sp)
 8001b54:	df000204 	addi	fp,sp,8
 8001b58:	e13ffe15 	stw	r4,-8(fp)
 8001b5c:	e17fff15 	stw	r5,-4(fp)
    gdu_sprite->address     = (uint16_t*) sprite->address;
 8001b60:	e0bfff17 	ldw	r2,-4(fp)
 8001b64:	10c00017 	ldw	r3,0(r2)
 8001b68:	e0bffe17 	ldw	r2,-8(fp)
 8001b6c:	10c00015 	stw	r3,0(r2)
    gdu_sprite->dimensions  = (uint32_t) ((sprite->width     << 16) + sprite->height);
 8001b70:	e0bfff17 	ldw	r2,-4(fp)
 8001b74:	10800117 	ldw	r2,4(r2)
 8001b78:	1006943a 	slli	r3,r2,16
 8001b7c:	e0bfff17 	ldw	r2,-4(fp)
 8001b80:	10800217 	ldw	r2,8(r2)
 8001b84:	1885883a 	add	r2,r3,r2
 8001b88:	1007883a 	mov	r3,r2
 8001b8c:	e0bffe17 	ldw	r2,-8(fp)
 8001b90:	10c00115 	stw	r3,4(r2)
    gdu_sprite->screen_xy   = (uint32_t) ((sprite->screen_x  << 16) + sprite->screen_y);
 8001b94:	e0bfff17 	ldw	r2,-4(fp)
 8001b98:	10800317 	ldw	r2,12(r2)
 8001b9c:	1006943a 	slli	r3,r2,16
 8001ba0:	e0bfff17 	ldw	r2,-4(fp)
 8001ba4:	10800417 	ldw	r2,16(r2)
 8001ba8:	1885883a 	add	r2,r3,r2
 8001bac:	1007883a 	mov	r3,r2
 8001bb0:	e0bffe17 	ldw	r2,-8(fp)
 8001bb4:	10c00215 	stw	r3,8(r2)
    gdu_sprite->start_xy    = (uint32_t) ((sprite->start_x   << 16) + sprite->start_y);
 8001bb8:	e0bfff17 	ldw	r2,-4(fp)
 8001bbc:	10800517 	ldw	r2,20(r2)
 8001bc0:	1006943a 	slli	r3,r2,16
 8001bc4:	e0bfff17 	ldw	r2,-4(fp)
 8001bc8:	10800617 	ldw	r2,24(r2)
 8001bcc:	1885883a 	add	r2,r3,r2
 8001bd0:	1007883a 	mov	r3,r2
 8001bd4:	e0bffe17 	ldw	r2,-8(fp)
 8001bd8:	10c00315 	stw	r3,12(r2)
    gdu_sprite->end_xy      = (uint32_t) ((sprite->end_x     << 16) + sprite->end_y);
 8001bdc:	e0bfff17 	ldw	r2,-4(fp)
 8001be0:	10800717 	ldw	r2,28(r2)
 8001be4:	1006943a 	slli	r3,r2,16
 8001be8:	e0bfff17 	ldw	r2,-4(fp)
 8001bec:	10800817 	ldw	r2,32(r2)
 8001bf0:	1885883a 	add	r2,r3,r2
 8001bf4:	1007883a 	mov	r3,r2
 8001bf8:	e0bffe17 	ldw	r2,-8(fp)
 8001bfc:	10c00415 	stw	r3,16(r2)
}
 8001c00:	0001883a 	nop
 8001c04:	e037883a 	mov	sp,fp
 8001c08:	df000017 	ldw	fp,0(sp)
 8001c0c:	dec00104 	addi	sp,sp,4
 8001c10:	f800283a 	ret

08001c14 <push_sprite>:

int push_sprite(sprite_t* sprite, uint32_t index) {
 8001c14:	defffb04 	addi	sp,sp,-20
 8001c18:	dfc00415 	stw	ra,16(sp)
 8001c1c:	df000315 	stw	fp,12(sp)
 8001c20:	dc000215 	stw	r16,8(sp)
 8001c24:	df000304 	addi	fp,sp,12
 8001c28:	e13ffd15 	stw	r4,-12(fp)
 8001c2c:	e17ffe15 	stw	r5,-8(fp)
    if (index > MAX_SPRITES)
 8001c30:	e0bffe17 	ldw	r2,-8(fp)
 8001c34:	10801070 	cmpltui	r2,r2,65
 8001c38:	1000021e 	bne	r2,zero,8001c44 <push_sprite+0x30>
        return 0;
 8001c3c:	0005883a 	mov	r2,zero
 8001c40:	00000a06 	br	8001c6c <push_sprite+0x58>
    convert_sprite(&gdu_mem->sprites[index], sprite);
 8001c44:	d4200017 	ldw	r16,-32768(gp)
 8001c48:	01400504 	movi	r5,20
 8001c4c:	e13ffe17 	ldw	r4,-8(fp)
 8001c50:	800620c0 	call	800620c <__mulsi3>
 8001c54:	10800204 	addi	r2,r2,8
 8001c58:	8085883a 	add	r2,r16,r2
 8001c5c:	e17ffd17 	ldw	r5,-12(fp)
 8001c60:	1009883a 	mov	r4,r2
 8001c64:	8001b4c0 	call	8001b4c <convert_sprite>
    return 1;
 8001c68:	00800044 	movi	r2,1
}
 8001c6c:	e6ffff04 	addi	sp,fp,-4
 8001c70:	dfc00217 	ldw	ra,8(sp)
 8001c74:	df000117 	ldw	fp,4(sp)
 8001c78:	dc000017 	ldw	r16,0(sp)
 8001c7c:	dec00304 	addi	sp,sp,12
 8001c80:	f800283a 	ret

08001c84 <pop_sprite>:

int pop_sprite(int index) {
 8001c84:	defffc04 	addi	sp,sp,-16
 8001c88:	dfc00315 	stw	ra,12(sp)
 8001c8c:	df000215 	stw	fp,8(sp)
 8001c90:	dc000115 	stw	r16,4(sp)
 8001c94:	df000204 	addi	fp,sp,8
 8001c98:	e13ffe15 	stw	r4,-8(fp)
    if (index > MAX_SPRITES)
 8001c9c:	e0bffe17 	ldw	r2,-8(fp)
 8001ca0:	10801050 	cmplti	r2,r2,65
 8001ca4:	1000021e 	bne	r2,zero,8001cb0 <pop_sprite+0x2c>
        return 0;
 8001ca8:	0005883a 	mov	r2,zero
 8001cac:	00000906 	br	8001cd4 <pop_sprite+0x50>
    gdu_mem->sprites[index].address = 0;
 8001cb0:	d4200017 	ldw	r16,-32768(gp)
 8001cb4:	e0bffe17 	ldw	r2,-8(fp)
 8001cb8:	01400504 	movi	r5,20
 8001cbc:	1009883a 	mov	r4,r2
 8001cc0:	800620c0 	call	800620c <__mulsi3>
 8001cc4:	8085883a 	add	r2,r16,r2
 8001cc8:	10800204 	addi	r2,r2,8
 8001ccc:	10000015 	stw	zero,0(r2)
    return 1;
 8001cd0:	00800044 	movi	r2,1
}
 8001cd4:	e6ffff04 	addi	sp,fp,-4
 8001cd8:	dfc00217 	ldw	ra,8(sp)
 8001cdc:	df000117 	ldw	fp,4(sp)
 8001ce0:	dc000017 	ldw	r16,0(sp)
 8001ce4:	dec00304 	addi	sp,sp,12
 8001ce8:	f800283a 	ret

08001cec <run_level1>:

#include <stdlib.h>

#define SPAWN_CUTOFF 250

int run_level1() {
 8001cec:	defb3c04 	addi	sp,sp,-4880
 8001cf0:	dfc4c315 	stw	ra,4876(sp)
 8001cf4:	df04c215 	stw	fp,4872(sp)
 8001cf8:	df04c204 	addi	fp,sp,4872
    rate_t frame_rate = create_rate(20);
 8001cfc:	e0bb5204 	addi	r2,fp,-4792
 8001d00:	01506834 	movhi	r5,16800
 8001d04:	1009883a 	mov	r4,r2
 8001d08:	80036000 	call	8003600 <create_rate>
    scene_t scene;
    clear_scene(&scene);
 8001d0c:	e0bb5504 	addi	r2,fp,-4780
 8001d10:	1009883a 	mov	r4,r2
 8001d14:	8000ea40 	call	8000ea4 <clear_scene>

    scene.scroll.max.x  = 3 * (level1_background_sprite.width - SCREEN_WIDTH);
 8001d18:	0080f004 	movi	r2,960
 8001d1c:	10ff6004 	addi	r3,r2,-640
 8001d20:	1805883a 	mov	r2,r3
 8001d24:	1085883a 	add	r2,r2,r2
 8001d28:	10c5883a 	add	r2,r2,r3
 8001d2c:	e0bb5815 	stw	r2,-4768(fp)
    scene.max.x         = scene.scroll.max.x + SCREEN_WIDTH;
 8001d30:	e0bb5817 	ldw	r2,-4768(fp)
 8001d34:	1080a004 	addi	r2,r2,640
 8001d38:	e0bb5a15 	stw	r2,-4760(fp)
    scene.max.y         = SCREEN_HEIGHT;
 8001d3c:	00807804 	movi	r2,480
 8001d40:	e0bb5b15 	stw	r2,-4756(fp)

    game_object_t* background       = allocate_object(&scene, BACKGROUND,   USED | VISABLE);
 8001d44:	e0bb5504 	addi	r2,fp,-4780
 8001d48:	018000c4 	movi	r6,3
 8001d4c:	000b883a 	mov	r5,zero
 8001d50:	1009883a 	mov	r4,r2
 8001d54:	8000ac80 	call	8000ac8 <allocate_object>
 8001d58:	e0bb4315 	stw	r2,-4852(fp)
    game_object_t* player_planet    = allocate_object(&scene, BACKGROUND,   USED | VISABLE | SCROLL | CENTERED);
 8001d5c:	e0bb5504 	addi	r2,fp,-4780
 8001d60:	018003c4 	movi	r6,15
 8001d64:	000b883a 	mov	r5,zero
 8001d68:	1009883a 	mov	r4,r2
 8001d6c:	8000ac80 	call	8000ac8 <allocate_object>
 8001d70:	e0bb4415 	stw	r2,-4848(fp)
    game_object_t* enemy_planet     = allocate_object(&scene, BACKGROUND,   USED | VISABLE | SCROLL | CENTERED);
 8001d74:	e0bb5504 	addi	r2,fp,-4780
 8001d78:	018003c4 	movi	r6,15
 8001d7c:	000b883a 	mov	r5,zero
 8001d80:	1009883a 	mov	r4,r2
 8001d84:	8000ac80 	call	8000ac8 <allocate_object>
 8001d88:	e0bb4515 	stw	r2,-4844(fp)
    game_object_t* statusbar        = allocate_object(&scene, EFFECTS,      USED | VISABLE);
 8001d8c:	e0bb5504 	addi	r2,fp,-4780
 8001d90:	018000c4 	movi	r6,3
 8001d94:	01400084 	movi	r5,2
 8001d98:	1009883a 	mov	r4,r2
 8001d9c:	8000ac80 	call	8000ac8 <allocate_object>
 8001da0:	e0bb4615 	stw	r2,-4840(fp)
    game_object_t* playerbar        = allocate_object(&scene, EFFECTS,      USED | VISABLE);
 8001da4:	e0bb5504 	addi	r2,fp,-4780
 8001da8:	018000c4 	movi	r6,3
 8001dac:	01400084 	movi	r5,2
 8001db0:	1009883a 	mov	r4,r2
 8001db4:	8000ac80 	call	8000ac8 <allocate_object>
 8001db8:	e0bb4715 	stw	r2,-4836(fp)
    game_object_t* enemybar         = allocate_object(&scene, EFFECTS,      USED | VISABLE);
 8001dbc:	e0bb5504 	addi	r2,fp,-4780
 8001dc0:	018000c4 	movi	r6,3
 8001dc4:	01400084 	movi	r5,2
 8001dc8:	1009883a 	mov	r4,r2
 8001dcc:	8000ac80 	call	8000ac8 <allocate_object>
 8001dd0:	e0bb4815 	stw	r2,-4832(fp)
    game_object_t* spawnship1       = allocate_object(&scene, EFFECTS,      USED | VISABLE | CENTERED);
 8001dd4:	e0bb5504 	addi	r2,fp,-4780
 8001dd8:	018002c4 	movi	r6,11
 8001ddc:	01400084 	movi	r5,2
 8001de0:	1009883a 	mov	r4,r2
 8001de4:	8000ac80 	call	8000ac8 <allocate_object>
 8001de8:	e0bb4915 	stw	r2,-4828(fp)
    game_object_t* spawnship2       = allocate_object(&scene, EFFECTS,      USED | VISABLE | CENTERED);
 8001dec:	e0bb5504 	addi	r2,fp,-4780
 8001df0:	018002c4 	movi	r6,11
 8001df4:	01400084 	movi	r5,2
 8001df8:	1009883a 	mov	r4,r2
 8001dfc:	8000ac80 	call	8000ac8 <allocate_object>
 8001e00:	e0bb4a15 	stw	r2,-4824(fp)
    game_object_t* spawnwarning     = allocate_object(&scene, EFFECTS,      USED | CENTERED);
 8001e04:	e0bb5504 	addi	r2,fp,-4780
 8001e08:	01800244 	movi	r6,9
 8001e0c:	01400084 	movi	r5,2
 8001e10:	1009883a 	mov	r4,r2
 8001e14:	8000ac80 	call	8000ac8 <allocate_object>
 8001e18:	e0bb4b15 	stw	r2,-4820(fp)
    game_object_t* cursor           = allocate_object(&scene, CURSOR,       USED | VISABLE);
 8001e1c:	e0bb5504 	addi	r2,fp,-4780
 8001e20:	018000c4 	movi	r6,3
 8001e24:	014000c4 	movi	r5,3
 8001e28:	1009883a 	mov	r4,r2
 8001e2c:	8000ac80 	call	8000ac8 <allocate_object>
 8001e30:	e0bb4c15 	stw	r2,-4816(fp)

    background->sprite      = level1_background_sprite;
 8001e34:	e0fb4317 	ldw	r3,-4852(fp)
 8001e38:	008200b4 	movhi	r2,2050
 8001e3c:	1093dd04 	addi	r2,r2,20340
 8001e40:	18800315 	stw	r2,12(r3)
 8001e44:	e0bb4317 	ldw	r2,-4852(fp)
 8001e48:	00c0f004 	movi	r3,960
 8001e4c:	10c00415 	stw	r3,16(r2)
 8001e50:	e0bb4317 	ldw	r2,-4852(fp)
 8001e54:	00c07804 	movi	r3,480
 8001e58:	10c00515 	stw	r3,20(r2)
 8001e5c:	e0bb4317 	ldw	r2,-4852(fp)
 8001e60:	10000615 	stw	zero,24(r2)
 8001e64:	e0bb4317 	ldw	r2,-4852(fp)
 8001e68:	10000715 	stw	zero,28(r2)
 8001e6c:	e0bb4317 	ldw	r2,-4852(fp)
 8001e70:	10000815 	stw	zero,32(r2)
 8001e74:	e0bb4317 	ldw	r2,-4852(fp)
 8001e78:	10000915 	stw	zero,36(r2)
 8001e7c:	e0bb4317 	ldw	r2,-4852(fp)
 8001e80:	00c0f004 	movi	r3,960
 8001e84:	10c00a15 	stw	r3,40(r2)
 8001e88:	e0bb4317 	ldw	r2,-4852(fp)
 8001e8c:	00c07804 	movi	r3,480
 8001e90:	10c00b15 	stw	r3,44(r2)
    player_planet->sprite   = level1_player_planet_sprite;
 8001e94:	e0fb4417 	ldw	r3,-4848(fp)
 8001e98:	00820434 	movhi	r2,2064
 8001e9c:	1097e604 	addi	r2,r2,24472
 8001ea0:	18800315 	stw	r2,12(r3)
 8001ea4:	e0bb4417 	ldw	r2,-4848(fp)
 8001ea8:	00c04b04 	movi	r3,300
 8001eac:	10c00415 	stw	r3,16(r2)
 8001eb0:	e0bb4417 	ldw	r2,-4848(fp)
 8001eb4:	00c04b04 	movi	r3,300
 8001eb8:	10c00515 	stw	r3,20(r2)
 8001ebc:	e0bb4417 	ldw	r2,-4848(fp)
 8001ec0:	10000615 	stw	zero,24(r2)
 8001ec4:	e0bb4417 	ldw	r2,-4848(fp)
 8001ec8:	10000715 	stw	zero,28(r2)
 8001ecc:	e0bb4417 	ldw	r2,-4848(fp)
 8001ed0:	10000815 	stw	zero,32(r2)
 8001ed4:	e0bb4417 	ldw	r2,-4848(fp)
 8001ed8:	10000915 	stw	zero,36(r2)
 8001edc:	e0bb4417 	ldw	r2,-4848(fp)
 8001ee0:	00c04b04 	movi	r3,300
 8001ee4:	10c00a15 	stw	r3,40(r2)
 8001ee8:	e0bb4417 	ldw	r2,-4848(fp)
 8001eec:	00c04b04 	movi	r3,300
 8001ef0:	10c00b15 	stw	r3,44(r2)
    enemy_planet->sprite    = level1_enemy_planet_sprite;
 8001ef4:	e0fb4517 	ldw	r3,-4844(fp)
 8001ef8:	008204f4 	movhi	r2,2067
 8001efc:	1087b704 	addi	r2,r2,7900
 8001f00:	18800315 	stw	r2,12(r3)
 8001f04:	e0bb4517 	ldw	r2,-4844(fp)
 8001f08:	00c04b04 	movi	r3,300
 8001f0c:	10c00415 	stw	r3,16(r2)
 8001f10:	e0bb4517 	ldw	r2,-4844(fp)
 8001f14:	00c04b04 	movi	r3,300
 8001f18:	10c00515 	stw	r3,20(r2)
 8001f1c:	e0bb4517 	ldw	r2,-4844(fp)
 8001f20:	10000615 	stw	zero,24(r2)
 8001f24:	e0bb4517 	ldw	r2,-4844(fp)
 8001f28:	10000715 	stw	zero,28(r2)
 8001f2c:	e0bb4517 	ldw	r2,-4844(fp)
 8001f30:	10000815 	stw	zero,32(r2)
 8001f34:	e0bb4517 	ldw	r2,-4844(fp)
 8001f38:	10000915 	stw	zero,36(r2)
 8001f3c:	e0bb4517 	ldw	r2,-4844(fp)
 8001f40:	00c04b04 	movi	r3,300
 8001f44:	10c00a15 	stw	r3,40(r2)
 8001f48:	e0bb4517 	ldw	r2,-4844(fp)
 8001f4c:	00c04b04 	movi	r3,300
 8001f50:	10c00b15 	stw	r3,44(r2)
    statusbar->sprite       = statusbar_sprite;
 8001f54:	e0fb4617 	ldw	r3,-4840(fp)
 8001f58:	008205b4 	movhi	r2,2070
 8001f5c:	10b78804 	addi	r2,r2,-8672
 8001f60:	18800315 	stw	r2,12(r3)
 8001f64:	e0bb4617 	ldw	r2,-4840(fp)
 8001f68:	00c0a004 	movi	r3,640
 8001f6c:	10c00415 	stw	r3,16(r2)
 8001f70:	e0bb4617 	ldw	r2,-4840(fp)
 8001f74:	00c00f04 	movi	r3,60
 8001f78:	10c00515 	stw	r3,20(r2)
 8001f7c:	e0bb4617 	ldw	r2,-4840(fp)
 8001f80:	10000615 	stw	zero,24(r2)
 8001f84:	e0bb4617 	ldw	r2,-4840(fp)
 8001f88:	10000715 	stw	zero,28(r2)
 8001f8c:	e0bb4617 	ldw	r2,-4840(fp)
 8001f90:	10000815 	stw	zero,32(r2)
 8001f94:	e0bb4617 	ldw	r2,-4840(fp)
 8001f98:	10000915 	stw	zero,36(r2)
 8001f9c:	e0bb4617 	ldw	r2,-4840(fp)
 8001fa0:	00c0a004 	movi	r3,640
 8001fa4:	10c00a15 	stw	r3,40(r2)
 8001fa8:	e0bb4617 	ldw	r2,-4840(fp)
 8001fac:	00c00f04 	movi	r3,60
 8001fb0:	10c00b15 	stw	r3,44(r2)
    playerbar->sprite       = greenhealth_sprite;
 8001fb4:	e0fb4717 	ldw	r3,-4836(fp)
 8001fb8:	008205f4 	movhi	r2,2071
 8001fbc:	10829104 	addi	r2,r2,2628
 8001fc0:	18800315 	stw	r2,12(r3)
 8001fc4:	e0bb4717 	ldw	r2,-4836(fp)
 8001fc8:	00c02684 	movi	r3,154
 8001fcc:	10c00415 	stw	r3,16(r2)
 8001fd0:	e0bb4717 	ldw	r2,-4836(fp)
 8001fd4:	00c007c4 	movi	r3,31
 8001fd8:	10c00515 	stw	r3,20(r2)
 8001fdc:	e0bb4717 	ldw	r2,-4836(fp)
 8001fe0:	10000615 	stw	zero,24(r2)
 8001fe4:	e0bb4717 	ldw	r2,-4836(fp)
 8001fe8:	10000715 	stw	zero,28(r2)
 8001fec:	e0bb4717 	ldw	r2,-4836(fp)
 8001ff0:	10000815 	stw	zero,32(r2)
 8001ff4:	e0bb4717 	ldw	r2,-4836(fp)
 8001ff8:	10000915 	stw	zero,36(r2)
 8001ffc:	e0bb4717 	ldw	r2,-4836(fp)
 8002000:	00c02684 	movi	r3,154
 8002004:	10c00a15 	stw	r3,40(r2)
 8002008:	e0bb4717 	ldw	r2,-4836(fp)
 800200c:	00c007c4 	movi	r3,31
 8002010:	10c00b15 	stw	r3,44(r2)
    enemybar->sprite        = redhealth_sprite;
 8002014:	e0fb4817 	ldw	r3,-4832(fp)
 8002018:	008205f4 	movhi	r2,2071
 800201c:	108bed04 	addi	r2,r2,12212
 8002020:	18800315 	stw	r2,12(r3)
 8002024:	e0bb4817 	ldw	r2,-4832(fp)
 8002028:	00c02684 	movi	r3,154
 800202c:	10c00415 	stw	r3,16(r2)
 8002030:	e0bb4817 	ldw	r2,-4832(fp)
 8002034:	00c007c4 	movi	r3,31
 8002038:	10c00515 	stw	r3,20(r2)
 800203c:	e0bb4817 	ldw	r2,-4832(fp)
 8002040:	10000615 	stw	zero,24(r2)
 8002044:	e0bb4817 	ldw	r2,-4832(fp)
 8002048:	10000715 	stw	zero,28(r2)
 800204c:	e0bb4817 	ldw	r2,-4832(fp)
 8002050:	10000815 	stw	zero,32(r2)
 8002054:	e0bb4817 	ldw	r2,-4832(fp)
 8002058:	10000915 	stw	zero,36(r2)
 800205c:	e0bb4817 	ldw	r2,-4832(fp)
 8002060:	00c02684 	movi	r3,154
 8002064:	10c00a15 	stw	r3,40(r2)
 8002068:	e0bb4817 	ldw	r2,-4832(fp)
 800206c:	00c007c4 	movi	r3,31
 8002070:	10c00b15 	stw	r3,44(r2)
    spawnship1->sprite      = playership0_sprite;
 8002074:	e0fb4917 	ldw	r3,-4828(fp)
 8002078:	008200b4 	movhi	r2,2050
 800207c:	10811804 	addi	r2,r2,1120
 8002080:	18800315 	stw	r2,12(r3)
 8002084:	e0bb4917 	ldw	r2,-4828(fp)
 8002088:	00c00a04 	movi	r3,40
 800208c:	10c00415 	stw	r3,16(r2)
 8002090:	e0bb4917 	ldw	r2,-4828(fp)
 8002094:	00c005c4 	movi	r3,23
 8002098:	10c00515 	stw	r3,20(r2)
 800209c:	e0bb4917 	ldw	r2,-4828(fp)
 80020a0:	10000615 	stw	zero,24(r2)
 80020a4:	e0bb4917 	ldw	r2,-4828(fp)
 80020a8:	10000715 	stw	zero,28(r2)
 80020ac:	e0bb4917 	ldw	r2,-4828(fp)
 80020b0:	10000815 	stw	zero,32(r2)
 80020b4:	e0bb4917 	ldw	r2,-4828(fp)
 80020b8:	10000915 	stw	zero,36(r2)
 80020bc:	e0bb4917 	ldw	r2,-4828(fp)
 80020c0:	00c00a04 	movi	r3,40
 80020c4:	10c00a15 	stw	r3,40(r2)
 80020c8:	e0bb4917 	ldw	r2,-4828(fp)
 80020cc:	00c005c4 	movi	r3,23
 80020d0:	10c00b15 	stw	r3,44(r2)
    spawnship2->sprite      = playership1_sprite;
 80020d4:	e0fb4a17 	ldw	r3,-4824(fp)
 80020d8:	008200b4 	movhi	r2,2050
 80020dc:	1082ed04 	addi	r2,r2,2996
 80020e0:	18800315 	stw	r2,12(r3)
 80020e4:	e0bb4a17 	ldw	r2,-4824(fp)
 80020e8:	00c01784 	movi	r3,94
 80020ec:	10c00415 	stw	r3,16(r2)
 80020f0:	e0bb4a17 	ldw	r2,-4824(fp)
 80020f4:	00c00984 	movi	r3,38
 80020f8:	10c00515 	stw	r3,20(r2)
 80020fc:	e0bb4a17 	ldw	r2,-4824(fp)
 8002100:	10000615 	stw	zero,24(r2)
 8002104:	e0bb4a17 	ldw	r2,-4824(fp)
 8002108:	10000715 	stw	zero,28(r2)
 800210c:	e0bb4a17 	ldw	r2,-4824(fp)
 8002110:	10000815 	stw	zero,32(r2)
 8002114:	e0bb4a17 	ldw	r2,-4824(fp)
 8002118:	10000915 	stw	zero,36(r2)
 800211c:	e0bb4a17 	ldw	r2,-4824(fp)
 8002120:	00c01784 	movi	r3,94
 8002124:	10c00a15 	stw	r3,40(r2)
 8002128:	e0bb4a17 	ldw	r2,-4824(fp)
 800212c:	00c00984 	movi	r3,38
 8002130:	10c00b15 	stw	r3,44(r2)
    spawnwarning->sprite    = warning_sprite;
 8002134:	e0fb4b17 	ldw	r3,-4820(fp)
 8002138:	008205f4 	movhi	r2,2071
 800213c:	10954904 	addi	r2,r2,21796
 8002140:	18800315 	stw	r2,12(r3)
 8002144:	e0bb4b17 	ldw	r2,-4820(fp)
 8002148:	00c00a04 	movi	r3,40
 800214c:	10c00415 	stw	r3,16(r2)
 8002150:	e0bb4b17 	ldw	r2,-4820(fp)
 8002154:	00c007c4 	movi	r3,31
 8002158:	10c00515 	stw	r3,20(r2)
 800215c:	e0bb4b17 	ldw	r2,-4820(fp)
 8002160:	10000615 	stw	zero,24(r2)
 8002164:	e0bb4b17 	ldw	r2,-4820(fp)
 8002168:	10000715 	stw	zero,28(r2)
 800216c:	e0bb4b17 	ldw	r2,-4820(fp)
 8002170:	10000815 	stw	zero,32(r2)
 8002174:	e0bb4b17 	ldw	r2,-4820(fp)
 8002178:	10000915 	stw	zero,36(r2)
 800217c:	e0bb4b17 	ldw	r2,-4820(fp)
 8002180:	00c00a04 	movi	r3,40
 8002184:	10c00a15 	stw	r3,40(r2)
 8002188:	e0bb4b17 	ldw	r2,-4820(fp)
 800218c:	00c007c4 	movi	r3,31
 8002190:	10c00b15 	stw	r3,44(r2)
    cursor->sprite          = cursor_sprite;
 8002194:	e0fb4c17 	ldw	r3,-4816(fp)
 8002198:	008205f4 	movhi	r2,2071
 800219c:	1097be04 	addi	r2,r2,24312
 80021a0:	18800315 	stw	r2,12(r3)
 80021a4:	e0bb4c17 	ldw	r2,-4816(fp)
 80021a8:	00c00584 	movi	r3,22
 80021ac:	10c00415 	stw	r3,16(r2)
 80021b0:	e0bb4c17 	ldw	r2,-4816(fp)
 80021b4:	00c00604 	movi	r3,24
 80021b8:	10c00515 	stw	r3,20(r2)
 80021bc:	e0bb4c17 	ldw	r2,-4816(fp)
 80021c0:	10000615 	stw	zero,24(r2)
 80021c4:	e0bb4c17 	ldw	r2,-4816(fp)
 80021c8:	10000715 	stw	zero,28(r2)
 80021cc:	e0bb4c17 	ldw	r2,-4816(fp)
 80021d0:	10000815 	stw	zero,32(r2)
 80021d4:	e0bb4c17 	ldw	r2,-4816(fp)
 80021d8:	10000915 	stw	zero,36(r2)
 80021dc:	e0bb4c17 	ldw	r2,-4816(fp)
 80021e0:	00c00584 	movi	r3,22
 80021e4:	10c00a15 	stw	r3,40(r2)
 80021e8:	e0bb4c17 	ldw	r2,-4816(fp)
 80021ec:	00c00604 	movi	r3,24
 80021f0:	10c00b15 	stw	r3,44(r2)

    player_planet->pos.x = 50 + player_planet->sprite.width / 2;
 80021f4:	e0bb4417 	ldw	r2,-4848(fp)
 80021f8:	10800417 	ldw	r2,16(r2)
 80021fc:	1006d7fa 	srli	r3,r2,31
 8002200:	1885883a 	add	r2,r3,r2
 8002204:	1005d07a 	srai	r2,r2,1
 8002208:	10c00c84 	addi	r3,r2,50
 800220c:	e0bb4417 	ldw	r2,-4848(fp)
 8002210:	10c00115 	stw	r3,4(r2)
    player_planet->pos.y = scene.max.y / 2;
 8002214:	e0bb5b17 	ldw	r2,-4756(fp)
 8002218:	1006d7fa 	srli	r3,r2,31
 800221c:	1885883a 	add	r2,r3,r2
 8002220:	1005d07a 	srai	r2,r2,1
 8002224:	1007883a 	mov	r3,r2
 8002228:	e0bb4417 	ldw	r2,-4848(fp)
 800222c:	10c00215 	stw	r3,8(r2)

    enemy_planet->pos.x = scene.max.x - 50 - enemy_planet->sprite.width / 2;
 8002230:	e0bb5a17 	ldw	r2,-4760(fp)
 8002234:	10fff384 	addi	r3,r2,-50
 8002238:	e0bb4517 	ldw	r2,-4844(fp)
 800223c:	10800417 	ldw	r2,16(r2)
 8002240:	1008d7fa 	srli	r4,r2,31
 8002244:	2085883a 	add	r2,r4,r2
 8002248:	1005d07a 	srai	r2,r2,1
 800224c:	1887c83a 	sub	r3,r3,r2
 8002250:	e0bb4517 	ldw	r2,-4844(fp)
 8002254:	10c00115 	stw	r3,4(r2)
    enemy_planet->pos.y = scene.max.y / 2;
 8002258:	e0bb5b17 	ldw	r2,-4756(fp)
 800225c:	1006d7fa 	srli	r3,r2,31
 8002260:	1885883a 	add	r2,r3,r2
 8002264:	1005d07a 	srai	r2,r2,1
 8002268:	1007883a 	mov	r3,r2
 800226c:	e0bb4517 	ldw	r2,-4844(fp)
 8002270:	10c00215 	stw	r3,8(r2)

    statusbar->pos.y = SCREEN_HEIGHT - statusbar->sprite.height;
 8002274:	e0bb4617 	ldw	r2,-4840(fp)
 8002278:	10800517 	ldw	r2,20(r2)
 800227c:	00c07804 	movi	r3,480
 8002280:	1887c83a 	sub	r3,r3,r2
 8002284:	e0bb4617 	ldw	r2,-4840(fp)
 8002288:	10c00215 	stw	r3,8(r2)

    playerbar->pos.x = 36;
 800228c:	e0bb4717 	ldw	r2,-4836(fp)
 8002290:	00c00904 	movi	r3,36
 8002294:	10c00115 	stw	r3,4(r2)
    playerbar->pos.y = SCREEN_HEIGHT - 46;
 8002298:	e0bb4717 	ldw	r2,-4836(fp)
 800229c:	00c06c84 	movi	r3,434
 80022a0:	10c00215 	stw	r3,8(r2)
    enemybar->pos.x = 450;
 80022a4:	e0bb4817 	ldw	r2,-4832(fp)
 80022a8:	00c07084 	movi	r3,450
 80022ac:	10c00115 	stw	r3,4(r2)
    enemybar->pos.y = SCREEN_HEIGHT - 46;
 80022b0:	e0bb4817 	ldw	r2,-4832(fp)
 80022b4:	00c06c84 	movi	r3,434
 80022b8:	10c00215 	stw	r3,8(r2)
    

    position_t spawnship1_default = statusbar->pos;
 80022bc:	e0bb4617 	ldw	r2,-4840(fp)
 80022c0:	10c00117 	ldw	r3,4(r2)
 80022c4:	e0ffec15 	stw	r3,-80(fp)
 80022c8:	10800217 	ldw	r2,8(r2)
 80022cc:	e0bfed15 	stw	r2,-76(fp)
    spawnship1_default.x += 270;
 80022d0:	e0bfec17 	ldw	r2,-80(fp)
 80022d4:	10804384 	addi	r2,r2,270
 80022d8:	e0bfec15 	stw	r2,-80(fp)
    spawnship1_default.y += 30;
 80022dc:	e0bfed17 	ldw	r2,-76(fp)
 80022e0:	10800784 	addi	r2,r2,30
 80022e4:	e0bfed15 	stw	r2,-76(fp)
    spawnship1->pos = spawnship1_default;
 80022e8:	e0bb4917 	ldw	r2,-4828(fp)
 80022ec:	e0ffec17 	ldw	r3,-80(fp)
 80022f0:	10c00115 	stw	r3,4(r2)
 80022f4:	e0ffed17 	ldw	r3,-76(fp)
 80022f8:	10c00215 	stw	r3,8(r2)

    position_t spawnship2_default = spawnship1_default;
 80022fc:	e0bfec17 	ldw	r2,-80(fp)
 8002300:	e0bfee15 	stw	r2,-72(fp)
 8002304:	e0bfed17 	ldw	r2,-76(fp)
 8002308:	e0bfef15 	stw	r2,-68(fp)
    spawnship2_default.x = 370;
 800230c:	00805c84 	movi	r2,370
 8002310:	e0bfee15 	stw	r2,-72(fp)
    spawnship2->pos = spawnship2_default;
 8002314:	e0bb4a17 	ldw	r2,-4824(fp)
 8002318:	e0ffee17 	ldw	r3,-72(fp)
 800231c:	10c00115 	stw	r3,4(r2)
 8002320:	e0ffef17 	ldw	r3,-68(fp)
 8002324:	10c00215 	stw	r3,8(r2)

    mouse_t mouse = new_mouse(SCREEN_WIDTH / 2, SCREEN_HEIGHT / 2);
 8002328:	e0bff004 	addi	r2,fp,-64
 800232c:	01803c04 	movi	r6,240
 8002330:	01405004 	movi	r5,320
 8002334:	1009883a 	mov	r4,r2
 8002338:	80031d40 	call	80031d4 <new_mouse>

    fade_t fade = create_fade(0x0000, FADE_FROM);
 800233c:	e0bff604 	addi	r2,fp,-40
 8002340:	01800044 	movi	r6,1
 8002344:	000b883a 	mov	r5,zero
 8002348:	1009883a 	mov	r4,r2
 800234c:	80004680 	call	8000468 <create_fade>
    start_fade(&fade, 1);
 8002350:	e0bff604 	addi	r2,fp,-40
 8002354:	014fe034 	movhi	r5,16256
 8002358:	1009883a 	mov	r4,r2
 800235c:	80004d40 	call	80004d4 <start_fade>

    spawn_ship(&scene, &enemy_cruiser, ENEMY, enemy_planet->pos);
 8002360:	e0bb4517 	ldw	r2,-4844(fp)
 8002364:	e13b5504 	addi	r4,fp,-4780
 8002368:	10c00217 	ldw	r3,8(r2)
 800236c:	d8c00015 	stw	r3,0(sp)
 8002370:	11c00117 	ldw	r7,4(r2)
 8002374:	01800044 	movi	r6,1
 8002378:	014200b4 	movhi	r5,2050
 800237c:	2953ce04 	addi	r5,r5,20280
 8002380:	80010c40 	call	80010c4 <spawn_ship>

    int player_health = 1000;
 8002384:	0080fa04 	movi	r2,1000
 8002388:	e0bb4d15 	stw	r2,-4812(fp)
    int enemy_health = 1000;    
 800238c:	0080fa04 	movi	r2,1000
 8002390:	e0bb4e15 	stw	r2,-4808(fp)

    int placing_ship = 0;
 8002394:	e03b3f15 	stw	zero,-4868(fp)
    int shipcountc = 0, shipcountf = 0, eshipcount = 0;
 8002398:	e03b4015 	stw	zero,-4864(fp)
 800239c:	e03b4115 	stw	zero,-4860(fp)
 80023a0:	e03b4215 	stw	zero,-4856(fp)
    int running = 1;
 80023a4:	00800044 	movi	r2,1
 80023a8:	e0bb4f15 	stw	r2,-4804(fp)
    while (running) {
 80023ac:	00013106 	br	8002874 <run_level1+0xb88>
        poll_mouse(&mouse, 0, 1);
 80023b0:	e0bff004 	addi	r2,fp,-64
 80023b4:	01800044 	movi	r6,1
 80023b8:	000b883a 	mov	r5,zero
 80023bc:	1009883a 	mov	r4,r2
 80023c0:	800325c0 	call	800325c <poll_mouse>

        if (is_ready(&frame_rate)) {
 80023c4:	e0bb5204 	addi	r2,fp,-4792
 80023c8:	1009883a 	mov	r4,r2
 80023cc:	80036bc0 	call	80036bc <is_ready>
 80023d0:	10012826 	beq	r2,zero,8002874 <run_level1+0xb88>
            handle_mouse(&mouse, &scene, 1, 0); 
 80023d4:	e0fb5504 	addi	r3,fp,-4780
 80023d8:	e0bff004 	addi	r2,fp,-64
 80023dc:	000f883a 	mov	r7,zero
 80023e0:	01800044 	movi	r6,1
 80023e4:	180b883a 	mov	r5,r3
 80023e8:	1009883a 	mov	r4,r2
 80023ec:	80008dc0 	call	80008dc <handle_mouse>
            cursor->pos = mouse.pos;
 80023f0:	e0bb4c17 	ldw	r2,-4816(fp)
 80023f4:	e0fff017 	ldw	r3,-64(fp)
 80023f8:	10c00115 	stw	r3,4(r2)
 80023fc:	e0fff117 	ldw	r3,-60(fp)
 8002400:	10c00215 	stw	r3,8(r2)

            if (!is_fade_done(&fade))
 8002404:	e0bff604 	addi	r2,fp,-40
 8002408:	1009883a 	mov	r4,r2
 800240c:	80005340 	call	8000534 <is_fade_done>
 8002410:	1000031e 	bne	r2,zero,8002420 <run_level1+0x734>
                show_fade(&fade);
 8002414:	e0bff604 	addi	r2,fp,-40
 8002418:	1009883a 	mov	r4,r2
 800241c:	80005a40 	call	80005a4 <show_fade>
            
            background->sprite.start_x = scene.scroll.pos.x / 3;
 8002420:	e0bb5617 	ldw	r2,-4776(fp)
 8002424:	014000c4 	movi	r5,3
 8002428:	1009883a 	mov	r4,r2
 800242c:	80060580 	call	8006058 <__divsi3>
 8002430:	1007883a 	mov	r3,r2
 8002434:	e0bb4317 	ldw	r2,-4852(fp)
 8002438:	10c00815 	stw	r3,32(r2)
            background->sprite.end_x = background->sprite.start_x + SCREEN_WIDTH;
 800243c:	e0bb4317 	ldw	r2,-4852(fp)
 8002440:	10800817 	ldw	r2,32(r2)
 8002444:	10c0a004 	addi	r3,r2,640
 8002448:	e0bb4317 	ldw	r2,-4852(fp)
 800244c:	10c00a15 	stw	r3,40(r2)

            playerbar->sprite.end_x = (playerbar->sprite.width * player_health) / 1000;
 8002450:	e0bb4717 	ldw	r2,-4836(fp)
 8002454:	10800417 	ldw	r2,16(r2)
 8002458:	e17b4d17 	ldw	r5,-4812(fp)
 800245c:	1009883a 	mov	r4,r2
 8002460:	800620c0 	call	800620c <__mulsi3>
 8002464:	0140fa04 	movi	r5,1000
 8002468:	1009883a 	mov	r4,r2
 800246c:	80060580 	call	8006058 <__divsi3>
 8002470:	1007883a 	mov	r3,r2
 8002474:	e0bb4717 	ldw	r2,-4836(fp)
 8002478:	10c00a15 	stw	r3,40(r2)
            enemybar->sprite.end_x = (enemybar->sprite.width * enemy_health) / 1000;
 800247c:	e0bb4817 	ldw	r2,-4832(fp)
 8002480:	10800417 	ldw	r2,16(r2)
 8002484:	e17b4e17 	ldw	r5,-4808(fp)
 8002488:	1009883a 	mov	r4,r2
 800248c:	800620c0 	call	800620c <__mulsi3>
 8002490:	0140fa04 	movi	r5,1000
 8002494:	1009883a 	mov	r4,r2
 8002498:	80060580 	call	8006058 <__divsi3>
 800249c:	1007883a 	mov	r3,r2
 80024a0:	e0bb4817 	ldw	r2,-4832(fp)
 80024a4:	10c00a15 	stw	r3,40(r2)

            position_t place_pos = mouse_to_game(&scene, &mouse);
 80024a8:	e0fff004 	addi	r3,fp,-64
 80024ac:	e0bb5504 	addi	r2,fp,-4780
 80024b0:	180b883a 	mov	r5,r3
 80024b4:	1009883a 	mov	r4,r2
 80024b8:	80008700 	call	8000870 <mouse_to_game>
 80024bc:	1009883a 	mov	r4,r2
 80024c0:	180b883a 	mov	r5,r3
 80024c4:	e13ffa15 	stw	r4,-24(fp)
 80024c8:	e17ffb15 	stw	r5,-20(fp)
            if (place_pos.x > SPAWN_CUTOFF)
 80024cc:	e0bffa17 	ldw	r2,-24(fp)
 80024d0:	10803ed0 	cmplti	r2,r2,251
 80024d4:	1000021e 	bne	r2,zero,80024e0 <run_level1+0x7f4>
                place_pos.x = SPAWN_CUTOFF;
 80024d8:	00803e84 	movi	r2,250
 80024dc:	e0bffa15 	stw	r2,-24(fp)

            if (is_clicked(&mouse, MOUSE_BUTTON_LEFT)) {
 80024e0:	e0bff004 	addi	r2,fp,-64
 80024e4:	000b883a 	mov	r5,zero
 80024e8:	1009883a 	mov	r4,r2
 80024ec:	800346c0 	call	800346c <is_clicked>
 80024f0:	10004126 	beq	r2,zero,80025f8 <run_level1+0x90c>
                switch (placing_ship) {
 80024f4:	e0bb3f17 	ldw	r2,-4868(fp)
 80024f8:	10c00060 	cmpeqi	r3,r2,1
 80024fc:	1800171e 	bne	r3,zero,800255c <run_level1+0x870>
 8002500:	10c000a0 	cmpeqi	r3,r2,2
 8002504:	1800281e 	bne	r3,zero,80025a8 <run_level1+0x8bc>
 8002508:	10003b1e 	bne	r2,zero,80025f8 <run_level1+0x90c>
                    case 0:
                        if (mouse_over_object(&scene, &mouse, spawnship1))
 800250c:	e0fff004 	addi	r3,fp,-64
 8002510:	e0bb5504 	addi	r2,fp,-4780
 8002514:	e1bb4917 	ldw	r6,-4828(fp)
 8002518:	180b883a 	mov	r5,r3
 800251c:	1009883a 	mov	r4,r2
 8002520:	80006b80 	call	80006b8 <mouse_over_object>
 8002524:	10000326 	beq	r2,zero,8002534 <run_level1+0x848>
                            placing_ship = 1;
 8002528:	00800044 	movi	r2,1
 800252c:	e0bb3f15 	stw	r2,-4868(fp)
                        else if (mouse_over_object(&scene, &mouse, spawnship2))
                            placing_ship = 2;
                        break;
 8002530:	00003006 	br	80025f4 <run_level1+0x908>
            if (is_clicked(&mouse, MOUSE_BUTTON_LEFT)) {
                switch (placing_ship) {
                    case 0:
                        if (mouse_over_object(&scene, &mouse, spawnship1))
                            placing_ship = 1;
                        else if (mouse_over_object(&scene, &mouse, spawnship2))
 8002534:	e0fff004 	addi	r3,fp,-64
 8002538:	e0bb5504 	addi	r2,fp,-4780
 800253c:	e1bb4a17 	ldw	r6,-4824(fp)
 8002540:	180b883a 	mov	r5,r3
 8002544:	1009883a 	mov	r4,r2
 8002548:	80006b80 	call	80006b8 <mouse_over_object>
 800254c:	10002926 	beq	r2,zero,80025f4 <run_level1+0x908>
                            placing_ship = 2;
 8002550:	00800084 	movi	r2,2
 8002554:	e0bb3f15 	stw	r2,-4868(fp)
                        break;
 8002558:	00002606 	br	80025f4 <run_level1+0x908>
                    case 1:
                        spawn_ship(&scene, &player_fighter, PLAYER, place_pos);
 800255c:	e0fb5504 	addi	r3,fp,-4780
 8002560:	e0bffb17 	ldw	r2,-20(fp)
 8002564:	d8800015 	stw	r2,0(sp)
 8002568:	e1fffa17 	ldw	r7,-24(fp)
 800256c:	000d883a 	mov	r6,zero
 8002570:	014200b4 	movhi	r5,2050
 8002574:	2953a104 	addi	r5,r5,20100
 8002578:	1809883a 	mov	r4,r3
 800257c:	80010c40 	call	80010c4 <spawn_ship>
                        spawnship1->pos = spawnship1_default;
 8002580:	e0bb4917 	ldw	r2,-4828(fp)
 8002584:	e0ffec17 	ldw	r3,-80(fp)
 8002588:	10c00115 	stw	r3,4(r2)
 800258c:	e0ffed17 	ldw	r3,-76(fp)
 8002590:	10c00215 	stw	r3,8(r2)
                        placing_ship = 0;
 8002594:	e03b3f15 	stw	zero,-4868(fp)
                        shipcountf++;
 8002598:	e0bb4117 	ldw	r2,-4860(fp)
 800259c:	10800044 	addi	r2,r2,1
 80025a0:	e0bb4115 	stw	r2,-4860(fp)
                        break;
 80025a4:	00001406 	br	80025f8 <run_level1+0x90c>
                    case 2:
                        spawn_ship(&scene, &player_cruiser, PLAYER, place_pos);
 80025a8:	e0fb5504 	addi	r3,fp,-4780
 80025ac:	e0bffb17 	ldw	r2,-20(fp)
 80025b0:	d8800015 	stw	r2,0(sp)
 80025b4:	e1fffa17 	ldw	r7,-24(fp)
 80025b8:	000d883a 	mov	r6,zero
 80025bc:	014200b4 	movhi	r5,2050
 80025c0:	2953b004 	addi	r5,r5,20160
 80025c4:	1809883a 	mov	r4,r3
 80025c8:	80010c40 	call	80010c4 <spawn_ship>
                        spawnship2->pos = spawnship2_default;
 80025cc:	e0bb4a17 	ldw	r2,-4824(fp)
 80025d0:	e0ffee17 	ldw	r3,-72(fp)
 80025d4:	10c00115 	stw	r3,4(r2)
 80025d8:	e0ffef17 	ldw	r3,-68(fp)
 80025dc:	10c00215 	stw	r3,8(r2)
                        placing_ship = 0;
 80025e0:	e03b3f15 	stw	zero,-4868(fp)
                        shipcountc++;
 80025e4:	e0bb4017 	ldw	r2,-4864(fp)
 80025e8:	10800044 	addi	r2,r2,1
 80025ec:	e0bb4015 	stw	r2,-4864(fp)
                        break;
 80025f0:	00000106 	br	80025f8 <run_level1+0x90c>
                    case 0:
                        if (mouse_over_object(&scene, &mouse, spawnship1))
                            placing_ship = 1;
                        else if (mouse_over_object(&scene, &mouse, spawnship2))
                            placing_ship = 2;
                        break;
 80025f4:	0001883a 	nop
                        shipcountc++;
                        break;
                }
            }

            position_t warn_pos = place_pos;
 80025f8:	e0bffa17 	ldw	r2,-24(fp)
 80025fc:	e0bffc15 	stw	r2,-16(fp)
 8002600:	e0bffb17 	ldw	r2,-20(fp)
 8002604:	e0bffd15 	stw	r2,-12(fp)
            warn_pos.x -= scene.scroll.pos.x;
 8002608:	e0fffc17 	ldw	r3,-16(fp)
 800260c:	e0bb5617 	ldw	r2,-4776(fp)
 8002610:	1885c83a 	sub	r2,r3,r2
 8002614:	e0bffc15 	stw	r2,-16(fp)
            if (warn_pos.x < spawnwarning->sprite.width / 2)
 8002618:	e0fffc17 	ldw	r3,-16(fp)
 800261c:	e0bb4b17 	ldw	r2,-4820(fp)
 8002620:	10800417 	ldw	r2,16(r2)
 8002624:	1008d7fa 	srli	r4,r2,31
 8002628:	2085883a 	add	r2,r4,r2
 800262c:	1005d07a 	srai	r2,r2,1
 8002630:	1880060e 	bge	r3,r2,800264c <run_level1+0x960>
                warn_pos.x = spawnwarning->sprite.width / 2;
 8002634:	e0bb4b17 	ldw	r2,-4820(fp)
 8002638:	10800417 	ldw	r2,16(r2)
 800263c:	1006d7fa 	srli	r3,r2,31
 8002640:	1885883a 	add	r2,r3,r2
 8002644:	1005d07a 	srai	r2,r2,1
 8002648:	e0bffc15 	stw	r2,-16(fp)

            if (placing_ship && warn_pos.x >= SPAWN_CUTOFF + scene.scroll.pos.x) {
 800264c:	e0bb3f17 	ldw	r2,-4868(fp)
 8002650:	10000f26 	beq	r2,zero,8002690 <run_level1+0x9a4>
 8002654:	e0fffc17 	ldw	r3,-16(fp)
 8002658:	e0bb5617 	ldw	r2,-4776(fp)
 800265c:	10803e84 	addi	r2,r2,250
 8002660:	18800b16 	blt	r3,r2,8002690 <run_level1+0x9a4>
                spawnwarning->flags |= VISABLE;
 8002664:	e0bb4b17 	ldw	r2,-4820(fp)
 8002668:	10800017 	ldw	r2,0(r2)
 800266c:	10c00094 	ori	r3,r2,2
 8002670:	e0bb4b17 	ldw	r2,-4820(fp)
 8002674:	10c00015 	stw	r3,0(r2)
                spawnwarning->pos   = warn_pos;
 8002678:	e0bb4b17 	ldw	r2,-4820(fp)
 800267c:	e0fffc17 	ldw	r3,-16(fp)
 8002680:	10c00115 	stw	r3,4(r2)
 8002684:	e0fffd17 	ldw	r3,-12(fp)
 8002688:	10c00215 	stw	r3,8(r2)
 800268c:	00000606 	br	80026a8 <run_level1+0x9bc>
            } else
                spawnwarning->flags &= ~VISABLE;
 8002690:	e0bb4b17 	ldw	r2,-4820(fp)
 8002694:	10c00017 	ldw	r3,0(r2)
 8002698:	00bfff44 	movi	r2,-3
 800269c:	1886703a 	and	r3,r3,r2
 80026a0:	e0bb4b17 	ldw	r2,-4820(fp)
 80026a4:	10c00015 	stw	r3,0(r2)

            switch (placing_ship) {
 80026a8:	e0bb3f17 	ldw	r2,-4868(fp)
 80026ac:	10c00060 	cmpeqi	r3,r2,1
 80026b0:	1800031e 	bne	r3,zero,80026c0 <run_level1+0x9d4>
 80026b4:	108000a0 	cmpeqi	r2,r2,2
 80026b8:	1000071e 	bne	r2,zero,80026d8 <run_level1+0x9ec>
 80026bc:	00000c06 	br	80026f0 <run_level1+0xa04>
                case 1:
                    spawnship1->pos = mouse.pos;
 80026c0:	e0bb4917 	ldw	r2,-4828(fp)
 80026c4:	e0fff017 	ldw	r3,-64(fp)
 80026c8:	10c00115 	stw	r3,4(r2)
 80026cc:	e0fff117 	ldw	r3,-60(fp)
 80026d0:	10c00215 	stw	r3,8(r2)
                    break;
 80026d4:	00000606 	br	80026f0 <run_level1+0xa04>
                case 2:
                    spawnship2->pos = mouse.pos;
 80026d8:	e0bb4a17 	ldw	r2,-4824(fp)
 80026dc:	e0fff017 	ldw	r3,-64(fp)
 80026e0:	10c00115 	stw	r3,4(r2)
 80026e4:	e0fff117 	ldw	r3,-60(fp)
 80026e8:	10c00215 	stw	r3,8(r2)
                    break;
 80026ec:	0001883a 	nop
            }

            int r = rand() % 4;
 80026f0:	8009a640 	call	8009a64 <rand>
 80026f4:	1007883a 	mov	r3,r2
 80026f8:	00a00034 	movhi	r2,32768
 80026fc:	108000c4 	addi	r2,r2,3
 8002700:	1884703a 	and	r2,r3,r2
 8002704:	1000040e 	bge	r2,zero,8002718 <run_level1+0xa2c>
 8002708:	10bfffc4 	addi	r2,r2,-1
 800270c:	00ffff04 	movi	r3,-4
 8002710:	10c4b03a 	or	r2,r2,r3
 8002714:	10800044 	addi	r2,r2,1
 8002718:	e0bb5015 	stw	r2,-4800(fp)
            int yr = ((rand() % 400));
 800271c:	8009a640 	call	8009a64 <rand>
 8002720:	01406404 	movi	r5,400
 8002724:	1009883a 	mov	r4,r2
 8002728:	80060dc0 	call	80060dc <__modsi3>
 800272c:	e0bb5115 	stw	r2,-4796(fp)
            if (eshipcount <= shipcountc + shipcountf) {
 8002730:	e0fb4017 	ldw	r3,-4864(fp)
 8002734:	e0bb4117 	ldw	r2,-4860(fp)
 8002738:	1887883a 	add	r3,r3,r2
 800273c:	e0bb4217 	ldw	r2,-4856(fp)
 8002740:	18804216 	blt	r3,r2,800284c <run_level1+0xb60>
                position_t epos;
                epos.y = yr;
 8002744:	e0bb5117 	ldw	r2,-4796(fp)
 8002748:	e0bfff15 	stw	r2,-4(fp)
                epos.x = 1200;
 800274c:	00812c04 	movi	r2,1200
 8002750:	e0bffe15 	stw	r2,-8(fp)

                switch(r)  {
 8002754:	e0bb5017 	ldw	r2,-4800(fp)
 8002758:	10c00060 	cmpeqi	r3,r2,1
 800275c:	1800161e 	bne	r3,zero,80027b8 <run_level1+0xacc>
 8002760:	10c00088 	cmpgei	r3,r2,2
 8002764:	1800021e 	bne	r3,zero,8002770 <run_level1+0xa84>
 8002768:	10000626 	beq	r2,zero,8002784 <run_level1+0xa98>
 800276c:	00003706 	br	800284c <run_level1+0xb60>
 8002770:	10c000a0 	cmpeqi	r3,r2,2
 8002774:	1800341e 	bne	r3,zero,8002848 <run_level1+0xb5c>
 8002778:	108000e0 	cmpeqi	r2,r2,3
 800277c:	10001b1e 	bne	r2,zero,80027ec <run_level1+0xb00>
 8002780:	00003206 	br	800284c <run_level1+0xb60>
                    case 0:
                        spawn_ship(&scene, &enemy_cruiser, ENEMY, epos);
 8002784:	e0fb5504 	addi	r3,fp,-4780
 8002788:	e0bfff17 	ldw	r2,-4(fp)
 800278c:	d8800015 	stw	r2,0(sp)
 8002790:	e1fffe17 	ldw	r7,-8(fp)
 8002794:	01800044 	movi	r6,1
 8002798:	014200b4 	movhi	r5,2050
 800279c:	2953ce04 	addi	r5,r5,20280
 80027a0:	1809883a 	mov	r4,r3
 80027a4:	80010c40 	call	80010c4 <spawn_ship>
                        eshipcount++;
 80027a8:	e0bb4217 	ldw	r2,-4856(fp)
 80027ac:	10800044 	addi	r2,r2,1
 80027b0:	e0bb4215 	stw	r2,-4856(fp)
                        break;
 80027b4:	00002506 	br	800284c <run_level1+0xb60>

                    case 1:
                        spawn_ship(&scene, &enemy_fighter, ENEMY, epos);
 80027b8:	e0fb5504 	addi	r3,fp,-4780
 80027bc:	e0bfff17 	ldw	r2,-4(fp)
 80027c0:	d8800015 	stw	r2,0(sp)
 80027c4:	e1fffe17 	ldw	r7,-8(fp)
 80027c8:	01800044 	movi	r6,1
 80027cc:	014200b4 	movhi	r5,2050
 80027d0:	2953bf04 	addi	r5,r5,20220
 80027d4:	1809883a 	mov	r4,r3
 80027d8:	80010c40 	call	80010c4 <spawn_ship>
                        eshipcount++;
 80027dc:	e0bb4217 	ldw	r2,-4856(fp)
 80027e0:	10800044 	addi	r2,r2,1
 80027e4:	e0bb4215 	stw	r2,-4856(fp)
                        break;
 80027e8:	00001806 	br	800284c <run_level1+0xb60>

                    case 2:
                    break;

                    case 3:
                        spawn_ship(&scene, &enemy_fighter, ENEMY, epos);
 80027ec:	e0fb5504 	addi	r3,fp,-4780
 80027f0:	e0bfff17 	ldw	r2,-4(fp)
 80027f4:	d8800015 	stw	r2,0(sp)
 80027f8:	e1fffe17 	ldw	r7,-8(fp)
 80027fc:	01800044 	movi	r6,1
 8002800:	014200b4 	movhi	r5,2050
 8002804:	2953bf04 	addi	r5,r5,20220
 8002808:	1809883a 	mov	r4,r3
 800280c:	80010c40 	call	80010c4 <spawn_ship>
                        spawn_ship(&scene, &enemy_cruiser, ENEMY, epos);
 8002810:	e0fb5504 	addi	r3,fp,-4780
 8002814:	e0bfff17 	ldw	r2,-4(fp)
 8002818:	d8800015 	stw	r2,0(sp)
 800281c:	e1fffe17 	ldw	r7,-8(fp)
 8002820:	01800044 	movi	r6,1
 8002824:	014200b4 	movhi	r5,2050
 8002828:	2953ce04 	addi	r5,r5,20280
 800282c:	1809883a 	mov	r4,r3
 8002830:	80010c40 	call	80010c4 <spawn_ship>
                        eshipcount += 2;
 8002834:	e0bb4217 	ldw	r2,-4856(fp)
 8002838:	10800084 	addi	r2,r2,2
 800283c:	e0bb4215 	stw	r2,-4856(fp)
                        break;
 8002840:	0001883a 	nop
 8002844:	00000106 	br	800284c <run_level1+0xb60>
                        spawn_ship(&scene, &enemy_fighter, ENEMY, epos);
                        eshipcount++;
                        break;

                    case 2:
                    break;
 8002848:	0001883a 	nop
                        eshipcount += 2;
                        break;
                }
            }

            update_game(&scene);
 800284c:	e0bb5504 	addi	r2,fp,-4780
 8002850:	1009883a 	mov	r4,r2
 8002854:	80019ec0 	call	80019ec <update_game>

            while (gdu_is_running());
 8002858:	0001883a 	nop
 800285c:	8001aa80 	call	8001aa8 <gdu_is_running>
 8002860:	103ffe1e 	bne	r2,zero,800285c <__alt_data_end+0xfc00285c>
            push_scene(&scene);
 8002864:	e0bb5504 	addi	r2,fp,-4780
 8002868:	1009883a 	mov	r4,r2
 800286c:	8000cc40 	call	8000cc4 <push_scene>
            start_render();
 8002870:	80003b00 	call	80003b0 <start_render>
    int enemy_health = 1000;    

    int placing_ship = 0;
    int shipcountc = 0, shipcountf = 0, eshipcount = 0;
    int running = 1;
    while (running) {
 8002874:	e0bb4f17 	ldw	r2,-4804(fp)
 8002878:	103ecd1e 	bne	r2,zero,80023b0 <__alt_data_end+0xfc0023b0>
            while (gdu_is_running());
            push_scene(&scene);
            start_render();
        }
    }
    return 0;
 800287c:	0005883a 	mov	r2,zero
}
 8002880:	e037883a 	mov	sp,fp
 8002884:	dfc00117 	ldw	ra,4(sp)
 8002888:	df000017 	ldw	fp,0(sp)
 800288c:	dec00204 	addi	sp,sp,8
 8002890:	f800283a 	ret

08002894 <run_title_screen>:
#include "../sprites/WAR_STARS_II.h"
#include "../sprites/start_button_unpressed.h"
#include "../sprites/start_button_pressed.h"
#include "../sprites/cursor.h"

void run_title_screen() {
 8002894:	defb4e04 	addi	sp,sp,-4808
 8002898:	dfc4b115 	stw	ra,4804(sp)
 800289c:	df04b015 	stw	fp,4800(sp)
 80028a0:	df04b004 	addi	fp,sp,4800
    rate_t frame_rate = create_rate(20);
 80028a4:	e0bb5c04 	addi	r2,fp,-4752
 80028a8:	01506834 	movhi	r5,16800
 80028ac:	1009883a 	mov	r4,r2
 80028b0:	80036000 	call	8003600 <create_rate>
    scene_t scene;
    clear_scene(&scene);
 80028b4:	e0bb5f04 	addi	r2,fp,-4740
 80028b8:	1009883a 	mov	r4,r2
 80028bc:	8000ea40 	call	8000ea4 <clear_scene>

    scene.max.x = SCREEN_WIDTH;
 80028c0:	0080a004 	movi	r2,640
 80028c4:	e0bb6415 	stw	r2,-4720(fp)
    scene.max.y = SCREEN_HEIGHT;
 80028c8:	00807804 	movi	r2,480
 80028cc:	e0bb6515 	stw	r2,-4716(fp)
    
    game_object_t* background               = allocate_object(&scene, BACKGROUND,   USED | VISABLE);
 80028d0:	e0bb5f04 	addi	r2,fp,-4740
 80028d4:	018000c4 	movi	r6,3
 80028d8:	000b883a 	mov	r5,zero
 80028dc:	1009883a 	mov	r4,r2
 80028e0:	8000ac80 	call	8000ac8 <allocate_object>
 80028e4:	e0bb5515 	stw	r2,-4780(fp)
    game_object_t* ship                     = allocate_object(&scene, EFFECTS,      USED | VISABLE | CENTERED);
 80028e8:	e0bb5f04 	addi	r2,fp,-4740
 80028ec:	018002c4 	movi	r6,11
 80028f0:	01400084 	movi	r5,2
 80028f4:	1009883a 	mov	r4,r2
 80028f8:	8000ac80 	call	8000ac8 <allocate_object>
 80028fc:	e0bb5615 	stw	r2,-4776(fp)
    game_object_t* title_text               = allocate_object(&scene, EFFECTS,      USED | VISABLE);
 8002900:	e0bb5f04 	addi	r2,fp,-4740
 8002904:	018000c4 	movi	r6,3
 8002908:	01400084 	movi	r5,2
 800290c:	1009883a 	mov	r4,r2
 8002910:	8000ac80 	call	8000ac8 <allocate_object>
 8002914:	e0bb5715 	stw	r2,-4772(fp)
    game_object_t* start_button_unpressed   = allocate_object(&scene, SHIPS,        USED | VISABLE);
 8002918:	e0bb5f04 	addi	r2,fp,-4740
 800291c:	018000c4 	movi	r6,3
 8002920:	01400044 	movi	r5,1
 8002924:	1009883a 	mov	r4,r2
 8002928:	8000ac80 	call	8000ac8 <allocate_object>
 800292c:	e0bb5815 	stw	r2,-4768(fp)
    game_object_t* start_button_pressed     = allocate_object(&scene, SHIPS,        USED);
 8002930:	e0bb5f04 	addi	r2,fp,-4740
 8002934:	01800044 	movi	r6,1
 8002938:	01400044 	movi	r5,1
 800293c:	1009883a 	mov	r4,r2
 8002940:	8000ac80 	call	8000ac8 <allocate_object>
 8002944:	e0bb5915 	stw	r2,-4764(fp)
    game_object_t* cursor                   = allocate_object(&scene, CURSOR,       USED | VISABLE);
 8002948:	e0bb5f04 	addi	r2,fp,-4740
 800294c:	018000c4 	movi	r6,3
 8002950:	014000c4 	movi	r5,3
 8002954:	1009883a 	mov	r4,r2
 8002958:	8000ac80 	call	8000ac8 <allocate_object>
 800295c:	e0bb5a15 	stw	r2,-4760(fp)
    
    background->sprite              = lightspeed_background_sprite;
 8002960:	e0fb5517 	ldw	r3,-4780(fp)
 8002964:	00820634 	movhi	r2,2072
 8002968:	10ab9404 	addi	r2,r2,-20912
 800296c:	18800315 	stw	r2,12(r3)
 8002970:	e0bb5517 	ldw	r2,-4780(fp)
 8002974:	00c19004 	movi	r3,1600
 8002978:	10c00415 	stw	r3,16(r2)
 800297c:	e0bb5517 	ldw	r2,-4780(fp)
 8002980:	00c07804 	movi	r3,480
 8002984:	10c00515 	stw	r3,20(r2)
 8002988:	e0bb5517 	ldw	r2,-4780(fp)
 800298c:	10000615 	stw	zero,24(r2)
 8002990:	e0bb5517 	ldw	r2,-4780(fp)
 8002994:	10000715 	stw	zero,28(r2)
 8002998:	e0bb5517 	ldw	r2,-4780(fp)
 800299c:	10000815 	stw	zero,32(r2)
 80029a0:	e0bb5517 	ldw	r2,-4780(fp)
 80029a4:	10000915 	stw	zero,36(r2)
 80029a8:	e0bb5517 	ldw	r2,-4780(fp)
 80029ac:	00c19004 	movi	r3,1600
 80029b0:	10c00a15 	stw	r3,40(r2)
 80029b4:	e0bb5517 	ldw	r2,-4780(fp)
 80029b8:	00c07804 	movi	r3,480
 80029bc:	10c00b15 	stw	r3,44(r2)
    ship->sprite                    = title_screen_ship_sprite;
 80029c0:	e0fb5617 	ldw	r3,-4776(fp)
 80029c4:	00820bf4 	movhi	r2,2095
 80029c8:	10879d04 	addi	r2,r2,7796
 80029cc:	18800315 	stw	r2,12(r3)
 80029d0:	e0bb5617 	ldw	r2,-4776(fp)
 80029d4:	00c03204 	movi	r3,200
 80029d8:	10c00415 	stw	r3,16(r2)
 80029dc:	e0bb5617 	ldw	r2,-4776(fp)
 80029e0:	00c01cc4 	movi	r3,115
 80029e4:	10c00515 	stw	r3,20(r2)
 80029e8:	e0bb5617 	ldw	r2,-4776(fp)
 80029ec:	10000615 	stw	zero,24(r2)
 80029f0:	e0bb5617 	ldw	r2,-4776(fp)
 80029f4:	10000715 	stw	zero,28(r2)
 80029f8:	e0bb5617 	ldw	r2,-4776(fp)
 80029fc:	10000815 	stw	zero,32(r2)
 8002a00:	e0bb5617 	ldw	r2,-4776(fp)
 8002a04:	10000915 	stw	zero,36(r2)
 8002a08:	e0bb5617 	ldw	r2,-4776(fp)
 8002a0c:	00c03204 	movi	r3,200
 8002a10:	10c00a15 	stw	r3,40(r2)
 8002a14:	e0bb5617 	ldw	r2,-4776(fp)
 8002a18:	00c01cc4 	movi	r3,115
 8002a1c:	10c00b15 	stw	r3,44(r2)
    title_text->sprite              = WAR_STARS_II_sprite;
 8002a20:	e0fb5717 	ldw	r3,-4772(fp)
 8002a24:	00820c34 	movhi	r2,2096
 8002a28:	10b49204 	addi	r2,r2,-11704
 8002a2c:	18800315 	stw	r2,12(r3)
 8002a30:	e0bb5717 	ldw	r2,-4772(fp)
 8002a34:	00c08584 	movi	r3,534
 8002a38:	10c00415 	stw	r3,16(r2)
 8002a3c:	e0bb5717 	ldw	r2,-4772(fp)
 8002a40:	00c00d04 	movi	r3,52
 8002a44:	10c00515 	stw	r3,20(r2)
 8002a48:	e0bb5717 	ldw	r2,-4772(fp)
 8002a4c:	10000615 	stw	zero,24(r2)
 8002a50:	e0bb5717 	ldw	r2,-4772(fp)
 8002a54:	10000715 	stw	zero,28(r2)
 8002a58:	e0bb5717 	ldw	r2,-4772(fp)
 8002a5c:	10000815 	stw	zero,32(r2)
 8002a60:	e0bb5717 	ldw	r2,-4772(fp)
 8002a64:	10000915 	stw	zero,36(r2)
 8002a68:	e0bb5717 	ldw	r2,-4772(fp)
 8002a6c:	00c08584 	movi	r3,534
 8002a70:	10c00a15 	stw	r3,40(r2)
 8002a74:	e0bb5717 	ldw	r2,-4772(fp)
 8002a78:	00c00d04 	movi	r3,52
 8002a7c:	10c00b15 	stw	r3,44(r2)
    start_button_unpressed->sprite  = start_button_unpressed_sprite;
 8002a80:	e0fb5817 	ldw	r3,-4768(fp)
 8002a84:	00820c74 	movhi	r2,2097
 8002a88:	10aad704 	addi	r2,r2,-21668
 8002a8c:	18800315 	stw	r2,12(r3)
 8002a90:	e0bb5817 	ldw	r2,-4768(fp)
 8002a94:	00c03204 	movi	r3,200
 8002a98:	10c00415 	stw	r3,16(r2)
 8002a9c:	e0bb5817 	ldw	r2,-4768(fp)
 8002aa0:	00c018c4 	movi	r3,99
 8002aa4:	10c00515 	stw	r3,20(r2)
 8002aa8:	e0bb5817 	ldw	r2,-4768(fp)
 8002aac:	10000615 	stw	zero,24(r2)
 8002ab0:	e0bb5817 	ldw	r2,-4768(fp)
 8002ab4:	10000715 	stw	zero,28(r2)
 8002ab8:	e0bb5817 	ldw	r2,-4768(fp)
 8002abc:	10000815 	stw	zero,32(r2)
 8002ac0:	e0bb5817 	ldw	r2,-4768(fp)
 8002ac4:	10000915 	stw	zero,36(r2)
 8002ac8:	e0bb5817 	ldw	r2,-4768(fp)
 8002acc:	00c03204 	movi	r3,200
 8002ad0:	10c00a15 	stw	r3,40(r2)
 8002ad4:	e0bb5817 	ldw	r2,-4768(fp)
 8002ad8:	00c018c4 	movi	r3,99
 8002adc:	10c00b15 	stw	r3,44(r2)
    start_button_pressed ->sprite   = start_button_pressed_sprite;
 8002ae0:	e0fb5917 	ldw	r3,-4764(fp)
 8002ae4:	00820c74 	movhi	r2,2097
 8002ae8:	10918c04 	addi	r2,r2,17968
 8002aec:	18800315 	stw	r2,12(r3)
 8002af0:	e0bb5917 	ldw	r2,-4764(fp)
 8002af4:	00c03204 	movi	r3,200
 8002af8:	10c00415 	stw	r3,16(r2)
 8002afc:	e0bb5917 	ldw	r2,-4764(fp)
 8002b00:	00c018c4 	movi	r3,99
 8002b04:	10c00515 	stw	r3,20(r2)
 8002b08:	e0bb5917 	ldw	r2,-4764(fp)
 8002b0c:	10000615 	stw	zero,24(r2)
 8002b10:	e0bb5917 	ldw	r2,-4764(fp)
 8002b14:	10000715 	stw	zero,28(r2)
 8002b18:	e0bb5917 	ldw	r2,-4764(fp)
 8002b1c:	10000815 	stw	zero,32(r2)
 8002b20:	e0bb5917 	ldw	r2,-4764(fp)
 8002b24:	10000915 	stw	zero,36(r2)
 8002b28:	e0bb5917 	ldw	r2,-4764(fp)
 8002b2c:	00c03204 	movi	r3,200
 8002b30:	10c00a15 	stw	r3,40(r2)
 8002b34:	e0bb5917 	ldw	r2,-4764(fp)
 8002b38:	00c018c4 	movi	r3,99
 8002b3c:	10c00b15 	stw	r3,44(r2)
    cursor->sprite                  = cursor_sprite;
 8002b40:	e0fb5a17 	ldw	r3,-4760(fp)
 8002b44:	00820cb4 	movhi	r2,2098
 8002b48:	10b84104 	addi	r2,r2,-7932
 8002b4c:	18800315 	stw	r2,12(r3)
 8002b50:	e0bb5a17 	ldw	r2,-4760(fp)
 8002b54:	00c00584 	movi	r3,22
 8002b58:	10c00415 	stw	r3,16(r2)
 8002b5c:	e0bb5a17 	ldw	r2,-4760(fp)
 8002b60:	00c00604 	movi	r3,24
 8002b64:	10c00515 	stw	r3,20(r2)
 8002b68:	e0bb5a17 	ldw	r2,-4760(fp)
 8002b6c:	10000615 	stw	zero,24(r2)
 8002b70:	e0bb5a17 	ldw	r2,-4760(fp)
 8002b74:	10000715 	stw	zero,28(r2)
 8002b78:	e0bb5a17 	ldw	r2,-4760(fp)
 8002b7c:	10000815 	stw	zero,32(r2)
 8002b80:	e0bb5a17 	ldw	r2,-4760(fp)
 8002b84:	10000915 	stw	zero,36(r2)
 8002b88:	e0bb5a17 	ldw	r2,-4760(fp)
 8002b8c:	00c00584 	movi	r3,22
 8002b90:	10c00a15 	stw	r3,40(r2)
 8002b94:	e0bb5a17 	ldw	r2,-4760(fp)
 8002b98:	00c00604 	movi	r3,24
 8002b9c:	10c00b15 	stw	r3,44(r2)

    ship->pos.x = 100;
 8002ba0:	e0bb5617 	ldw	r2,-4776(fp)
 8002ba4:	00c01904 	movi	r3,100
 8002ba8:	10c00115 	stw	r3,4(r2)
    ship->pos.y = scene.max.y / 2;
 8002bac:	e0bb6517 	ldw	r2,-4716(fp)
 8002bb0:	1006d7fa 	srli	r3,r2,31
 8002bb4:	1885883a 	add	r2,r3,r2
 8002bb8:	1005d07a 	srai	r2,r2,1
 8002bbc:	1007883a 	mov	r3,r2
 8002bc0:	e0bb5617 	ldw	r2,-4776(fp)
 8002bc4:	10c00215 	stw	r3,8(r2)

    title_text->pos.x = (scene.max.x - title_text->sprite.width) / 2;
 8002bc8:	e0fb6417 	ldw	r3,-4720(fp)
 8002bcc:	e0bb5717 	ldw	r2,-4772(fp)
 8002bd0:	10800417 	ldw	r2,16(r2)
 8002bd4:	1885c83a 	sub	r2,r3,r2
 8002bd8:	1006d7fa 	srli	r3,r2,31
 8002bdc:	1885883a 	add	r2,r3,r2
 8002be0:	1005d07a 	srai	r2,r2,1
 8002be4:	1007883a 	mov	r3,r2
 8002be8:	e0bb5717 	ldw	r2,-4772(fp)
 8002bec:	10c00115 	stw	r3,4(r2)
    title_text->pos.y = 100;
 8002bf0:	e0bb5717 	ldw	r2,-4772(fp)
 8002bf4:	00c01904 	movi	r3,100
 8002bf8:	10c00215 	stw	r3,8(r2)

    start_button_unpressed->pos.x = 3 * scene.max.x / 4 - start_button_unpressed->sprite.width / 2;
 8002bfc:	e0fb6417 	ldw	r3,-4720(fp)
 8002c00:	1805883a 	mov	r2,r3
 8002c04:	1085883a 	add	r2,r2,r2
 8002c08:	10c5883a 	add	r2,r2,r3
 8002c0c:	1000010e 	bge	r2,zero,8002c14 <run_title_screen+0x380>
 8002c10:	108000c4 	addi	r2,r2,3
 8002c14:	1005d0ba 	srai	r2,r2,2
 8002c18:	1009883a 	mov	r4,r2
 8002c1c:	e0bb5817 	ldw	r2,-4768(fp)
 8002c20:	10800417 	ldw	r2,16(r2)
 8002c24:	1006d7fa 	srli	r3,r2,31
 8002c28:	1885883a 	add	r2,r3,r2
 8002c2c:	1005d07a 	srai	r2,r2,1
 8002c30:	2087c83a 	sub	r3,r4,r2
 8002c34:	e0bb5817 	ldw	r2,-4768(fp)
 8002c38:	10c00115 	stw	r3,4(r2)
    start_button_unpressed->pos.y = scene.max.y - start_button_unpressed->sprite.height - 50;
 8002c3c:	e0fb6517 	ldw	r3,-4716(fp)
 8002c40:	e0bb5817 	ldw	r2,-4768(fp)
 8002c44:	10800517 	ldw	r2,20(r2)
 8002c48:	1885c83a 	sub	r2,r3,r2
 8002c4c:	10fff384 	addi	r3,r2,-50
 8002c50:	e0bb5817 	ldw	r2,-4768(fp)
 8002c54:	10c00215 	stw	r3,8(r2)

    start_button_pressed->pos = start_button_unpressed->pos;
 8002c58:	e0bb5917 	ldw	r2,-4764(fp)
 8002c5c:	e0fb5817 	ldw	r3,-4768(fp)
 8002c60:	19000117 	ldw	r4,4(r3)
 8002c64:	11000115 	stw	r4,4(r2)
 8002c68:	18c00217 	ldw	r3,8(r3)
 8002c6c:	10c00215 	stw	r3,8(r2)

    float dx = 0;
 8002c70:	e03b5015 	stw	zero,-4800(fp)
    float x = ship->pos.x;
 8002c74:	e0bb5617 	ldw	r2,-4776(fp)
 8002c78:	10800117 	ldw	r2,4(r2)
 8002c7c:	1009883a 	mov	r4,r2
 8002c80:	80076440 	call	8007644 <__floatsisf>
 8002c84:	1007883a 	mov	r3,r2
 8002c88:	e0fb5115 	stw	r3,-4796(fp)

    int start_fading = 0;
 8002c8c:	e03b5215 	stw	zero,-4792(fp)
    int fading = 0;
 8002c90:	e03b5b15 	stw	zero,-4756(fp)
    int exiting = 0;
 8002c94:	e03b5315 	stw	zero,-4788(fp)

    fade_t fade = create_fade(0x0000, FADE_TO);
 8002c98:	e0bff604 	addi	r2,fp,-40
 8002c9c:	000d883a 	mov	r6,zero
 8002ca0:	000b883a 	mov	r5,zero
 8002ca4:	1009883a 	mov	r4,r2
 8002ca8:	80004680 	call	8000468 <create_fade>

    mouse_t mouse = new_mouse(scene.max.x / 2, scene.max.y / 2);
 8002cac:	e0bb6417 	ldw	r2,-4720(fp)
 8002cb0:	1006d7fa 	srli	r3,r2,31
 8002cb4:	1885883a 	add	r2,r3,r2
 8002cb8:	1005d07a 	srai	r2,r2,1
 8002cbc:	1009883a 	mov	r4,r2
 8002cc0:	e0bb6517 	ldw	r2,-4716(fp)
 8002cc4:	1006d7fa 	srli	r3,r2,31
 8002cc8:	1885883a 	add	r2,r3,r2
 8002ccc:	1005d07a 	srai	r2,r2,1
 8002cd0:	1007883a 	mov	r3,r2
 8002cd4:	e0bffa04 	addi	r2,fp,-24
 8002cd8:	180d883a 	mov	r6,r3
 8002cdc:	200b883a 	mov	r5,r4
 8002ce0:	1009883a 	mov	r4,r2
 8002ce4:	80031d40 	call	80031d4 <new_mouse>

    int running = 1;
 8002ce8:	00800044 	movi	r2,1
 8002cec:	e0bb5415 	stw	r2,-4784(fp)
    while (running) {
 8002cf0:	00007206 	br	8002ebc <run_title_screen+0x628>
        poll_mouse(&mouse, 0, 1);
 8002cf4:	e0bffa04 	addi	r2,fp,-24
 8002cf8:	01800044 	movi	r6,1
 8002cfc:	000b883a 	mov	r5,zero
 8002d00:	1009883a 	mov	r4,r2
 8002d04:	800325c0 	call	800325c <poll_mouse>

        if (is_ready(&frame_rate)) {
 8002d08:	e0bb5c04 	addi	r2,fp,-4752
 8002d0c:	1009883a 	mov	r4,r2
 8002d10:	80036bc0 	call	80036bc <is_ready>
 8002d14:	10006926 	beq	r2,zero,8002ebc <run_title_screen+0x628>
            handle_mouse(&mouse, &scene, 0, 0); 
 8002d18:	e0fb5f04 	addi	r3,fp,-4740
 8002d1c:	e0bffa04 	addi	r2,fp,-24
 8002d20:	000f883a 	mov	r7,zero
 8002d24:	000d883a 	mov	r6,zero
 8002d28:	180b883a 	mov	r5,r3
 8002d2c:	1009883a 	mov	r4,r2
 8002d30:	80008dc0 	call	80008dc <handle_mouse>
            cursor->pos = mouse.pos;
 8002d34:	e0bb5a17 	ldw	r2,-4760(fp)
 8002d38:	e0fffa17 	ldw	r3,-24(fp)
 8002d3c:	10c00115 	stw	r3,4(r2)
 8002d40:	e0fffb17 	ldw	r3,-20(fp)
 8002d44:	10c00215 	stw	r3,8(r2)

            background->sprite.start_x += 2;
 8002d48:	e0bb5517 	ldw	r2,-4780(fp)
 8002d4c:	10800817 	ldw	r2,32(r2)
 8002d50:	10c00084 	addi	r3,r2,2
 8002d54:	e0bb5517 	ldw	r2,-4780(fp)
 8002d58:	10c00815 	stw	r3,32(r2)
            if (background->sprite.start_x >= background->sprite.width - SCREEN_WIDTH)
 8002d5c:	e0bb5517 	ldw	r2,-4780(fp)
 8002d60:	10c00817 	ldw	r3,32(r2)
 8002d64:	e0bb5517 	ldw	r2,-4780(fp)
 8002d68:	10800417 	ldw	r2,16(r2)
 8002d6c:	10bf6004 	addi	r2,r2,-640
 8002d70:	18800216 	blt	r3,r2,8002d7c <run_title_screen+0x4e8>
                background->sprite.start_x = 0;
 8002d74:	e0bb5517 	ldw	r2,-4780(fp)
 8002d78:	10000815 	stw	zero,32(r2)
            background->sprite.end_x = background->sprite.start_x + SCREEN_WIDTH;
 8002d7c:	e0bb5517 	ldw	r2,-4780(fp)
 8002d80:	10800817 	ldw	r2,32(r2)
 8002d84:	10c0a004 	addi	r3,r2,640
 8002d88:	e0bb5517 	ldw	r2,-4780(fp)
 8002d8c:	10c00a15 	stw	r3,40(r2)

            if (is_clicked(&mouse, MOUSE_BUTTON_LEFT)) {
 8002d90:	e0bffa04 	addi	r2,fp,-24
 8002d94:	000b883a 	mov	r5,zero
 8002d98:	1009883a 	mov	r4,r2
 8002d9c:	800346c0 	call	800346c <is_clicked>
 8002da0:	10001426 	beq	r2,zero,8002df4 <run_title_screen+0x560>
                if (mouse_over_object(&scene, &mouse, start_button_unpressed)) {
 8002da4:	e0fffa04 	addi	r3,fp,-24
 8002da8:	e0bb5f04 	addi	r2,fp,-4740
 8002dac:	e1bb5817 	ldw	r6,-4768(fp)
 8002db0:	180b883a 	mov	r5,r3
 8002db4:	1009883a 	mov	r4,r2
 8002db8:	80006b80 	call	80006b8 <mouse_over_object>
 8002dbc:	10000d26 	beq	r2,zero,8002df4 <run_title_screen+0x560>
                    start_button_unpressed->flags &= ~VISABLE;
 8002dc0:	e0bb5817 	ldw	r2,-4768(fp)
 8002dc4:	10c00017 	ldw	r3,0(r2)
 8002dc8:	00bfff44 	movi	r2,-3
 8002dcc:	1886703a 	and	r3,r3,r2
 8002dd0:	e0bb5817 	ldw	r2,-4768(fp)
 8002dd4:	10c00015 	stw	r3,0(r2)
                    start_button_pressed ->flags |= VISABLE;
 8002dd8:	e0bb5917 	ldw	r2,-4764(fp)
 8002ddc:	10800017 	ldw	r2,0(r2)
 8002de0:	10c00094 	ori	r3,r2,2
 8002de4:	e0bb5917 	ldw	r2,-4764(fp)
 8002de8:	10c00015 	stw	r3,0(r2)
                    exiting = 1;
 8002dec:	00800044 	movi	r2,1
 8002df0:	e0bb5315 	stw	r2,-4788(fp)
                }
            }

            if (exiting) {
 8002df4:	e0bb5317 	ldw	r2,-4788(fp)
 8002df8:	10001026 	beq	r2,zero,8002e3c <run_title_screen+0x5a8>
                dx += 0.35f;
 8002dfc:	014facf4 	movhi	r5,16051
 8002e00:	294cccc4 	addi	r5,r5,13107
 8002e04:	e13b5017 	ldw	r4,-4800(fp)
 8002e08:	80062340 	call	8006234 <__addsf3>
 8002e0c:	1007883a 	mov	r3,r2
 8002e10:	e0fb5015 	stw	r3,-4800(fp)
                x += dx;
 8002e14:	e17b5017 	ldw	r5,-4800(fp)
 8002e18:	e13b5117 	ldw	r4,-4796(fp)
 8002e1c:	80062340 	call	8006234 <__addsf3>
 8002e20:	1007883a 	mov	r3,r2
 8002e24:	e0fb5115 	stw	r3,-4796(fp)
                ship->pos.x = x;
 8002e28:	e13b5117 	ldw	r4,-4796(fp)
 8002e2c:	80075d40 	call	80075d4 <__fixsfsi>
 8002e30:	1007883a 	mov	r3,r2
 8002e34:	e0bb5617 	ldw	r2,-4776(fp)
 8002e38:	10c00115 	stw	r3,4(r2)
            }

            fading = ship->pos.x + ship->sprite.width > scene.max.x;
 8002e3c:	e0bb5617 	ldw	r2,-4776(fp)
 8002e40:	10c00117 	ldw	r3,4(r2)
 8002e44:	e0bb5617 	ldw	r2,-4776(fp)
 8002e48:	10800417 	ldw	r2,16(r2)
 8002e4c:	1885883a 	add	r2,r3,r2
 8002e50:	e0fb6417 	ldw	r3,-4720(fp)
 8002e54:	1884803a 	cmplt	r2,r3,r2
 8002e58:	10803fcc 	andi	r2,r2,255
 8002e5c:	e0bb5b15 	stw	r2,-4756(fp)

            if (fading) {
 8002e60:	e0bb5b17 	ldw	r2,-4756(fp)
 8002e64:	10000e26 	beq	r2,zero,8002ea0 <run_title_screen+0x60c>
                if (!start_fading) {
 8002e68:	e0bb5217 	ldw	r2,-4792(fp)
 8002e6c:	1000061e 	bne	r2,zero,8002e88 <run_title_screen+0x5f4>
                    start_fade(&fade, 1);
 8002e70:	e0bff604 	addi	r2,fp,-40
 8002e74:	014fe034 	movhi	r5,16256
 8002e78:	1009883a 	mov	r4,r2
 8002e7c:	80004d40 	call	80004d4 <start_fade>
                    start_fading = 1;
 8002e80:	00800044 	movi	r2,1
 8002e84:	e0bb5215 	stw	r2,-4792(fp)
                }
                running = !show_fade(&fade);
 8002e88:	e0bff604 	addi	r2,fp,-40
 8002e8c:	1009883a 	mov	r4,r2
 8002e90:	80005a40 	call	80005a4 <show_fade>
 8002e94:	1005003a 	cmpeq	r2,r2,zero
 8002e98:	10803fcc 	andi	r2,r2,255
 8002e9c:	e0bb5415 	stw	r2,-4784(fp)
            }
            
            while (gdu_is_running());
 8002ea0:	0001883a 	nop
 8002ea4:	8001aa80 	call	8001aa8 <gdu_is_running>
 8002ea8:	103ffe1e 	bne	r2,zero,8002ea4 <__alt_data_end+0xfc002ea4>
            push_scene(&scene);
 8002eac:	e0bb5f04 	addi	r2,fp,-4740
 8002eb0:	1009883a 	mov	r4,r2
 8002eb4:	8000cc40 	call	8000cc4 <push_scene>
            start_render();
 8002eb8:	80003b00 	call	80003b0 <start_render>
    fade_t fade = create_fade(0x0000, FADE_TO);

    mouse_t mouse = new_mouse(scene.max.x / 2, scene.max.y / 2);

    int running = 1;
    while (running) {
 8002ebc:	e0bb5417 	ldw	r2,-4784(fp)
 8002ec0:	103f8c1e 	bne	r2,zero,8002cf4 <__alt_data_end+0xfc002cf4>
            while (gdu_is_running());
            push_scene(&scene);
            start_render();
        }
    }
}
 8002ec4:	0001883a 	nop
 8002ec8:	e037883a 	mov	sp,fp
 8002ecc:	dfc00117 	ldw	ra,4(sp)
 8002ed0:	df000017 	ldw	fp,0(sp)
 8002ed4:	dec00204 	addi	sp,sp,8
 8002ed8:	f800283a 	ret

08002edc <main>:

#include "levels/title_screen.h"
#include "levels/level1.h"
#include "sprites/mouse.h"

int main() {
 8002edc:	deffef04 	addi	sp,sp,-68
 8002ee0:	dfc01015 	stw	ra,64(sp)
 8002ee4:	df000f15 	stw	fp,60(sp)
 8002ee8:	df000f04 	addi	fp,sp,60
    printf("Running War Stars 2: Defense of the Homes!\n");
 8002eec:	01020d74 	movhi	r4,2101
 8002ef0:	211cb804 	addi	r4,r4,29408
 8002ef4:	8009a380 	call	8009a38 <puts>
    disable_master_timer();
 8002ef8:	80035180 	call	8003518 <disable_master_timer>
    usleep(1000);
 8002efc:	0100fa04 	movi	r4,1000
 8002f00:	8014d0c0 	call	8014d0c <usleep>
    enable_master_timer();
 8002f04:	80034ec0 	call	80034ec <enable_master_timer>
    
    vga_init();
 8002f08:	80056a40 	call	80056a4 <vga_init>
    gdu_reset();
 8002f0c:	8001acc0 	call	8001acc <gdu_reset>

    sprite_t mouse_s = mouse_sprite;
 8002f10:	00820cb4 	movhi	r2,2098
 8002f14:	108c1704 	addi	r2,r2,12380
 8002f18:	e0bff115 	stw	r2,-60(fp)
 8002f1c:	00806404 	movi	r2,400
 8002f20:	e0bff215 	stw	r2,-56(fp)
 8002f24:	008042c4 	movi	r2,267
 8002f28:	e0bff315 	stw	r2,-52(fp)
 8002f2c:	e03ff415 	stw	zero,-48(fp)
 8002f30:	e03ff515 	stw	zero,-44(fp)
 8002f34:	e03ff615 	stw	zero,-40(fp)
 8002f38:	e03ff715 	stw	zero,-36(fp)
 8002f3c:	00806404 	movi	r2,400
 8002f40:	e0bff815 	stw	r2,-32(fp)
 8002f44:	008042c4 	movi	r2,267
 8002f48:	e0bff915 	stw	r2,-28(fp)
    mouse_s.screen_x = (SCREEN_WIDTH - mouse_s.width) / 2;
 8002f4c:	e0bff217 	ldw	r2,-56(fp)
 8002f50:	00c0a004 	movi	r3,640
 8002f54:	1885c83a 	sub	r2,r3,r2
 8002f58:	1006d7fa 	srli	r3,r2,31
 8002f5c:	1885883a 	add	r2,r3,r2
 8002f60:	1005d07a 	srai	r2,r2,1
 8002f64:	e0bff415 	stw	r2,-48(fp)
    mouse_s.screen_y = (SCREEN_HEIGHT - mouse_s.height) / 2;
 8002f68:	e0bff317 	ldw	r2,-52(fp)
 8002f6c:	00c07804 	movi	r3,480
 8002f70:	1885c83a 	sub	r2,r3,r2
 8002f74:	1006d7fa 	srli	r3,r2,31
 8002f78:	1885883a 	add	r2,r3,r2
 8002f7c:	1005d07a 	srai	r2,r2,1
 8002f80:	e0bff515 	stw	r2,-44(fp)
    push_sprite(&mouse_s, 0);
 8002f84:	000b883a 	mov	r5,zero
 8002f88:	e13ff104 	addi	r4,fp,-60
 8002f8c:	8001c140 	call	8001c14 <push_sprite>
    double_render();
 8002f90:	80004200 	call	8000420 <double_render>
    pop_sprite(0);
 8002f94:	0009883a 	mov	r4,zero
 8002f98:	8001c840 	call	8001c84 <pop_sprite>
    
    init_mouse();
 8002f9c:	80031a40 	call	80031a4 <init_mouse>
    mouse_t mouse;
    while (!poll_mouse(&mouse, 0, 0));
 8002fa0:	0001883a 	nop
 8002fa4:	e0bffa04 	addi	r2,fp,-24
 8002fa8:	000d883a 	mov	r6,zero
 8002fac:	000b883a 	mov	r5,zero
 8002fb0:	1009883a 	mov	r4,r2
 8002fb4:	800325c0 	call	800325c <poll_mouse>
 8002fb8:	103ffa26 	beq	r2,zero,8002fa4 <__alt_data_end+0xfc002fa4>
    
    run_title_screen();
 8002fbc:	80028940 	call	8002894 <run_title_screen>
    run_level1();
 8002fc0:	8001cec0 	call	8001cec <run_level1>
    
    printf("Done!\n");
 8002fc4:	01020d74 	movhi	r4,2101
 8002fc8:	211cc304 	addi	r4,r4,29452
 8002fcc:	8009a380 	call	8009a38 <puts>
    return 0;
 8002fd0:	0005883a 	mov	r2,zero
}
 8002fd4:	e037883a 	mov	sp,fp
 8002fd8:	dfc00117 	ldw	ra,4(sp)
 8002fdc:	df000017 	ldw	fp,0(sp)
 8002fe0:	dec00204 	addi	sp,sp,8
 8002fe4:	f800283a 	ret

08002fe8 <GetDriverandReport>:
#include "timer.h"

extern HID_DEVICE hid_device;
static BYTE addr = 1;

BYTE GetDriverandReport() {
 8002fe8:	defff604 	addi	sp,sp,-40
 8002fec:	dfc00915 	stw	ra,36(sp)
 8002ff0:	df000815 	stw	fp,32(sp)
 8002ff4:	df000804 	addi	fp,sp,32
	BYTE i;
	BYTE rcode;
	BYTE device = 0xFF;
 8002ff8:	00bfffc4 	movi	r2,-1
 8002ffc:	e0bffd45 	stb	r2,-11(fp)
	BYTE tmpbyte;

	DEV_RECORD* tpl_ptr;
	printf("Reached USB_STATE_RUNNING (0x40)\n");
 8003000:	01020d74 	movhi	r4,2101
 8003004:	211cc504 	addi	r4,r4,29460
 8003008:	8009a380 	call	8009a38 <puts>
	for (i = 1; i < USB_NUMDEVICES; i++) {
 800300c:	00800044 	movi	r2,1
 8003010:	e0bffd05 	stb	r2,-12(fp)
 8003014:	00001206 	br	8003060 <GetDriverandReport+0x78>
		tpl_ptr = GetDevtable(i);
 8003018:	e0bffd03 	ldbu	r2,-12(fp)
 800301c:	1009883a 	mov	r4,r2
 8003020:	80055e80 	call	80055e8 <GetDevtable>
 8003024:	e0bffe15 	stw	r2,-8(fp)
		if (tpl_ptr->epinfo != NULL) {
 8003028:	e0bffe17 	ldw	r2,-8(fp)
 800302c:	10800017 	ldw	r2,0(r2)
 8003030:	10000826 	beq	r2,zero,8003054 <GetDriverandReport+0x6c>
			printf("Device: %d", i);
 8003034:	e0bffd03 	ldbu	r2,-12(fp)
 8003038:	100b883a 	mov	r5,r2
 800303c:	01020d74 	movhi	r4,2101
 8003040:	211cce04 	addi	r4,r4,29496
 8003044:	800993c0 	call	800993c <printf>
			device = tpl_ptr->devclass;
 8003048:	e0bffe17 	ldw	r2,-8(fp)
 800304c:	10800103 	ldbu	r2,4(r2)
 8003050:	e0bffd45 	stb	r2,-11(fp)
	BYTE device = 0xFF;
	BYTE tmpbyte;

	DEV_RECORD* tpl_ptr;
	printf("Reached USB_STATE_RUNNING (0x40)\n");
	for (i = 1; i < USB_NUMDEVICES; i++) {
 8003054:	e0bffd03 	ldbu	r2,-12(fp)
 8003058:	10800044 	addi	r2,r2,1
 800305c:	e0bffd05 	stb	r2,-12(fp)
 8003060:	e0bffd03 	ldbu	r2,-12(fp)
 8003064:	10800230 	cmpltui	r2,r2,8
 8003068:	103feb1e 	bne	r2,zero,8003018 <__alt_data_end+0xfc003018>
			printf("Device: %d", i);
			device = tpl_ptr->devclass;
		}
	}
	//Query rate and protocol
	rcode = XferGetIdle(addr, 0, hid_device.interface, 0, &tmpbyte);
 800306c:	d0a00103 	ldbu	r2,-32764(gp)
 8003070:	11003fcc 	andi	r4,r2,255
 8003074:	d0a6e6c3 	ldbu	r2,-25701(gp)
 8003078:	10803fcc 	andi	r2,r2,255
 800307c:	e0ffff44 	addi	r3,fp,-3
 8003080:	d8c00415 	stw	r3,16(sp)
 8003084:	00c00044 	movi	r3,1
 8003088:	d8c00315 	stw	r3,12(sp)
 800308c:	d8800215 	stw	r2,8(sp)
 8003090:	d8000115 	stw	zero,4(sp)
 8003094:	d8000015 	stw	zero,0(sp)
 8003098:	01c00084 	movi	r7,2
 800309c:	01802844 	movi	r6,161
 80030a0:	000b883a 	mov	r5,zero
 80030a4:	800480c0 	call	800480c <XferCtrlReq>
 80030a8:	e0bfff05 	stb	r2,-4(fp)
	if (rcode) {   //error handling
 80030ac:	e0bfff03 	ldbu	r2,-4(fp)
 80030b0:	10000926 	beq	r2,zero,80030d8 <GetDriverandReport+0xf0>
		printf("GetIdle Error. Error code: ");
 80030b4:	01020d74 	movhi	r4,2101
 80030b8:	211cd104 	addi	r4,r4,29508
 80030bc:	800993c0 	call	800993c <printf>
		printf("%x \n", rcode);
 80030c0:	e0bfff03 	ldbu	r2,-4(fp)
 80030c4:	100b883a 	mov	r5,r2
 80030c8:	01020d74 	movhi	r4,2101
 80030cc:	211cd804 	addi	r4,r4,29536
 80030d0:	800993c0 	call	800993c <printf>
 80030d4:	00000906 	br	80030fc <GetDriverandReport+0x114>
	} else {
		printf("Update rate: ");
 80030d8:	01020d74 	movhi	r4,2101
 80030dc:	211cda04 	addi	r4,r4,29544
 80030e0:	800993c0 	call	800993c <printf>
		printf("%x \n", tmpbyte);
 80030e4:	e0bfff43 	ldbu	r2,-3(fp)
 80030e8:	10803fcc 	andi	r2,r2,255
 80030ec:	100b883a 	mov	r5,r2
 80030f0:	01020d74 	movhi	r4,2101
 80030f4:	211cd804 	addi	r4,r4,29536
 80030f8:	800993c0 	call	800993c <printf>
	}
	printf("Protocol: ");
 80030fc:	01020d74 	movhi	r4,2101
 8003100:	211cde04 	addi	r4,r4,29560
 8003104:	800993c0 	call	800993c <printf>
	rcode = XferGetProto(addr, 0, hid_device.interface, &tmpbyte);
 8003108:	d0a00103 	ldbu	r2,-32764(gp)
 800310c:	11003fcc 	andi	r4,r2,255
 8003110:	d0a6e6c3 	ldbu	r2,-25701(gp)
 8003114:	10803fcc 	andi	r2,r2,255
 8003118:	e0ffff44 	addi	r3,fp,-3
 800311c:	d8c00415 	stw	r3,16(sp)
 8003120:	00c00044 	movi	r3,1
 8003124:	d8c00315 	stw	r3,12(sp)
 8003128:	d8800215 	stw	r2,8(sp)
 800312c:	d8000115 	stw	zero,4(sp)
 8003130:	d8000015 	stw	zero,0(sp)
 8003134:	01c000c4 	movi	r7,3
 8003138:	01802844 	movi	r6,161
 800313c:	000b883a 	mov	r5,zero
 8003140:	800480c0 	call	800480c <XferCtrlReq>
 8003144:	e0bfff05 	stb	r2,-4(fp)
	if (rcode) {   //error handling
 8003148:	e0bfff03 	ldbu	r2,-4(fp)
 800314c:	10000926 	beq	r2,zero,8003174 <GetDriverandReport+0x18c>
		printf("GetProto Error. Error code ");
 8003150:	01020d74 	movhi	r4,2101
 8003154:	211ce104 	addi	r4,r4,29572
 8003158:	800993c0 	call	800993c <printf>
		printf("%x \n", rcode);
 800315c:	e0bfff03 	ldbu	r2,-4(fp)
 8003160:	100b883a 	mov	r5,r2
 8003164:	01020d74 	movhi	r4,2101
 8003168:	211cd804 	addi	r4,r4,29536
 800316c:	800993c0 	call	800993c <printf>
 8003170:	00000606 	br	800318c <GetDriverandReport+0x1a4>
	} else {
		printf("%d \n", tmpbyte);
 8003174:	e0bfff43 	ldbu	r2,-3(fp)
 8003178:	10803fcc 	andi	r2,r2,255
 800317c:	100b883a 	mov	r5,r2
 8003180:	01020d74 	movhi	r4,2101
 8003184:	211ce804 	addi	r4,r4,29600
 8003188:	800993c0 	call	800993c <printf>
	}
	return device;
 800318c:	e0bffd43 	ldbu	r2,-11(fp)
}
 8003190:	e037883a 	mov	sp,fp
 8003194:	dfc00117 	ldw	ra,4(sp)
 8003198:	df000017 	ldw	fp,0(sp)
 800319c:	dec00204 	addi	sp,sp,8
 80031a0:	f800283a 	ret

080031a4 <init_mouse>:


void init_mouse() {
 80031a4:	defffe04 	addi	sp,sp,-8
 80031a8:	dfc00115 	stw	ra,4(sp)
 80031ac:	df000015 	stw	fp,0(sp)
 80031b0:	d839883a 	mov	fp,sp
    MAX3421E_init();
 80031b4:	80046140 	call	8004614 <MAX3421E_init>
    USB_init();
 80031b8:	8004dc00 	call	8004dc0 <USB_init>
}
 80031bc:	0001883a 	nop
 80031c0:	e037883a 	mov	sp,fp
 80031c4:	dfc00117 	ldw	ra,4(sp)
 80031c8:	df000017 	ldw	fp,0(sp)
 80031cc:	dec00204 	addi	sp,sp,8
 80031d0:	f800283a 	ret

080031d4 <new_mouse>:

mouse_t new_mouse(int x, int y) {
 80031d4:	defff604 	addi	sp,sp,-40
 80031d8:	df000915 	stw	fp,36(sp)
 80031dc:	df000904 	addi	fp,sp,36
 80031e0:	e13ffd15 	stw	r4,-12(fp)
 80031e4:	e17ffe15 	stw	r5,-8(fp)
 80031e8:	e1bfff15 	stw	r6,-4(fp)
    mouse_t mouse = {
 80031ec:	e03ff715 	stw	zero,-36(fp)
 80031f0:	e03ff815 	stw	zero,-32(fp)
 80031f4:	e03ff915 	stw	zero,-28(fp)
 80031f8:	e03ffa15 	stw	zero,-24(fp)
 80031fc:	e03ffb15 	stw	zero,-20(fp)
 8003200:	e03ffc15 	stw	zero,-16(fp)
 8003204:	e0bffe17 	ldw	r2,-8(fp)
 8003208:	e0bff715 	stw	r2,-36(fp)
 800320c:	e0bfff17 	ldw	r2,-4(fp)
 8003210:	e0bff815 	stw	r2,-32(fp)
        {x, y},
        {0, 0}
    };
    return mouse;
 8003214:	e0bffd17 	ldw	r2,-12(fp)
 8003218:	e0fff717 	ldw	r3,-36(fp)
 800321c:	10c00015 	stw	r3,0(r2)
 8003220:	e0fff817 	ldw	r3,-32(fp)
 8003224:	10c00115 	stw	r3,4(r2)
 8003228:	e0fff917 	ldw	r3,-28(fp)
 800322c:	10c00215 	stw	r3,8(r2)
 8003230:	e0fffa17 	ldw	r3,-24(fp)
 8003234:	10c00315 	stw	r3,12(r2)
 8003238:	e0fffb17 	ldw	r3,-20(fp)
 800323c:	10c00415 	stw	r3,16(r2)
 8003240:	e0fffc17 	ldw	r3,-16(fp)
 8003244:	10c00515 	stw	r3,20(r2)
}
 8003248:	e0bffd17 	ldw	r2,-12(fp)
 800324c:	e037883a 	mov	sp,fp
 8003250:	df000017 	ldw	fp,0(sp)
 8003254:	dec00104 	addi	sp,sp,4
 8003258:	f800283a 	ret

0800325c <poll_mouse>:

int poll_mouse(mouse_t* mouse, int reverse_x, int reverse_y) {
 800325c:	defff804 	addi	sp,sp,-32
 8003260:	dfc00715 	stw	ra,28(sp)
 8003264:	df000615 	stw	fp,24(sp)
 8003268:	df000604 	addi	fp,sp,24
 800326c:	e13ffd15 	stw	r4,-12(fp)
 8003270:	e17ffe15 	stw	r5,-8(fp)
 8003274:	e1bfff15 	stw	r6,-4(fp)
    static BOOT_MOUSE_REPORT buf;
    static BYTE device;
    static BYTE runningdebugflag = 0;

    MAX3421E_Task();
 8003278:	80046a80 	call	80046a8 <MAX3421E_Task>
    USB_Task();
 800327c:	8004e580 	call	8004e58 <USB_Task>

    if (GetUsbTaskState() == USB_STATE_RUNNING) {
 8003280:	80055c80 	call	80055c8 <GetUsbTaskState>
 8003284:	10803fcc 	andi	r2,r2,255
 8003288:	10801018 	cmpnei	r2,r2,64
 800328c:	1000691e 	bne	r2,zero,8003434 <poll_mouse+0x1d8>
        if (!runningdebugflag) {
 8003290:	d0a6e403 	ldbu	r2,-25712(gp)
 8003294:	10803fcc 	andi	r2,r2,255
 8003298:	1000051e 	bne	r2,zero,80032b0 <poll_mouse+0x54>
            runningdebugflag = 1;
 800329c:	00800044 	movi	r2,1
 80032a0:	d0a6e405 	stb	r2,-25712(gp)
            device = GetDriverandReport();
 80032a4:	8002fe80 	call	8002fe8 <GetDriverandReport>
 80032a8:	d0a6e445 	stb	r2,-25711(gp)
 80032ac:	00006906 	br	8003454 <poll_mouse+0x1f8>
        } else if (device == 2) {
 80032b0:	d0a6e443 	ldbu	r2,-25711(gp)
 80032b4:	10803fcc 	andi	r2,r2,255
 80032b8:	10800098 	cmpnei	r2,r2,2
 80032bc:	1000651e 	bne	r2,zero,8003454 <poll_mouse+0x1f8>
            BYTE rcode = mousePoll(&buf);
 80032c0:	d126e484 	addi	r4,gp,-25710
 80032c4:	8003fe40 	call	8003fe4 <mousePoll>
 80032c8:	e0bffa05 	stb	r2,-24(fp)
            if (rcode == hrNAK) {
 80032cc:	e0bffa03 	ldbu	r2,-24(fp)
 80032d0:	10800118 	cmpnei	r2,r2,4
 80032d4:	1000021e 	bne	r2,zero,80032e0 <poll_mouse+0x84>
                //NAK means no new data
                return 0;
 80032d8:	0005883a 	mov	r2,zero
 80032dc:	00005e06 	br	8003458 <poll_mouse+0x1fc>
            } else if (rcode) {
 80032e0:	e0bffa03 	ldbu	r2,-24(fp)
 80032e4:	10000a26 	beq	r2,zero,8003310 <poll_mouse+0xb4>
                printf("Rcode: ");
 80032e8:	01020d74 	movhi	r4,2101
 80032ec:	211cea04 	addi	r4,r4,29608
 80032f0:	800993c0 	call	800993c <printf>
                printf("%x \n", rcode);
 80032f4:	e0bffa03 	ldbu	r2,-24(fp)
 80032f8:	100b883a 	mov	r5,r2
 80032fc:	01020d74 	movhi	r4,2101
 8003300:	211cd804 	addi	r4,r4,29536
 8003304:	800993c0 	call	800993c <printf>
                return 0;
 8003308:	0005883a 	mov	r2,zero
 800330c:	00005206 	br	8003458 <poll_mouse+0x1fc>
            }

            if (reverse_x)
 8003310:	e0bffe17 	ldw	r2,-8(fp)
 8003314:	10000a26 	beq	r2,zero,8003340 <poll_mouse+0xe4>
                mouse->pos.x -= (signed char) buf.x;
 8003318:	e0bffd17 	ldw	r2,-12(fp)
 800331c:	10c00017 	ldw	r3,0(r2)
 8003320:	d0a6e503 	ldbu	r2,-25708(gp)
 8003324:	10803fcc 	andi	r2,r2,255
 8003328:	1080201c 	xori	r2,r2,128
 800332c:	10bfe004 	addi	r2,r2,-128
 8003330:	1887c83a 	sub	r3,r3,r2
 8003334:	e0bffd17 	ldw	r2,-12(fp)
 8003338:	10c00015 	stw	r3,0(r2)
 800333c:	00000906 	br	8003364 <poll_mouse+0x108>
            else
                mouse->pos.x += (signed char) buf.x;
 8003340:	e0bffd17 	ldw	r2,-12(fp)
 8003344:	10c00017 	ldw	r3,0(r2)
 8003348:	d0a6e503 	ldbu	r2,-25708(gp)
 800334c:	10803fcc 	andi	r2,r2,255
 8003350:	1080201c 	xori	r2,r2,128
 8003354:	10bfe004 	addi	r2,r2,-128
 8003358:	1887883a 	add	r3,r3,r2
 800335c:	e0bffd17 	ldw	r2,-12(fp)
 8003360:	10c00015 	stw	r3,0(r2)
            if (reverse_y)
 8003364:	e0bfff17 	ldw	r2,-4(fp)
 8003368:	10000a26 	beq	r2,zero,8003394 <poll_mouse+0x138>
                mouse->pos.y -= (signed char) buf.y;
 800336c:	e0bffd17 	ldw	r2,-12(fp)
 8003370:	10c00117 	ldw	r3,4(r2)
 8003374:	d0a6e583 	ldbu	r2,-25706(gp)
 8003378:	10803fcc 	andi	r2,r2,255
 800337c:	1080201c 	xori	r2,r2,128
 8003380:	10bfe004 	addi	r2,r2,-128
 8003384:	1887c83a 	sub	r3,r3,r2
 8003388:	e0bffd17 	ldw	r2,-12(fp)
 800338c:	10c00115 	stw	r3,4(r2)
 8003390:	00000906 	br	80033b8 <poll_mouse+0x15c>
            else
                mouse->pos.y += (signed char) buf.y;
 8003394:	e0bffd17 	ldw	r2,-12(fp)
 8003398:	10c00117 	ldw	r3,4(r2)
 800339c:	d0a6e583 	ldbu	r2,-25706(gp)
 80033a0:	10803fcc 	andi	r2,r2,255
 80033a4:	1080201c 	xori	r2,r2,128
 80033a8:	10bfe004 	addi	r2,r2,-128
 80033ac:	1887883a 	add	r3,r3,r2
 80033b0:	e0bffd17 	ldw	r2,-12(fp)
 80033b4:	10c00115 	stw	r3,4(r2)

            mouse_buttons_t buttons;
            buttons.left    = buf.button & 0x01;
 80033b8:	d0a6e483 	ldbu	r2,-25710(gp)
 80033bc:	10803fcc 	andi	r2,r2,255
 80033c0:	1080004c 	andi	r2,r2,1
 80033c4:	e0bffb15 	stw	r2,-20(fp)
            buttons.right   = buf.button & 0x02;
 80033c8:	d0a6e483 	ldbu	r2,-25710(gp)
 80033cc:	10803fcc 	andi	r2,r2,255
 80033d0:	1080008c 	andi	r2,r2,2
 80033d4:	e0bffc15 	stw	r2,-16(fp)

            if (mouse->buttons.left && !buttons.left)
 80033d8:	e0bffd17 	ldw	r2,-12(fp)
 80033dc:	10800217 	ldw	r2,8(r2)
 80033e0:	10000526 	beq	r2,zero,80033f8 <poll_mouse+0x19c>
 80033e4:	e0bffb17 	ldw	r2,-20(fp)
 80033e8:	1000031e 	bne	r2,zero,80033f8 <poll_mouse+0x19c>
                mouse->clicked.left = 1;
 80033ec:	e0bffd17 	ldw	r2,-12(fp)
 80033f0:	00c00044 	movi	r3,1
 80033f4:	10c00415 	stw	r3,16(r2)
            if (mouse->buttons.right && !buttons.right)
 80033f8:	e0bffd17 	ldw	r2,-12(fp)
 80033fc:	10800317 	ldw	r2,12(r2)
 8003400:	10000526 	beq	r2,zero,8003418 <poll_mouse+0x1bc>
 8003404:	e0bffc17 	ldw	r2,-16(fp)
 8003408:	1000031e 	bne	r2,zero,8003418 <poll_mouse+0x1bc>
                mouse->clicked.right = 1;
 800340c:	e0bffd17 	ldw	r2,-12(fp)
 8003410:	00c00044 	movi	r3,1
 8003414:	10c00515 	stw	r3,20(r2)
            
            mouse->buttons = buttons;
 8003418:	e0bffd17 	ldw	r2,-12(fp)
 800341c:	e0fffb17 	ldw	r3,-20(fp)
 8003420:	10c00215 	stw	r3,8(r2)
 8003424:	e0fffc17 	ldw	r3,-16(fp)
 8003428:	10c00315 	stw	r3,12(r2)
            return 1;
 800342c:	00800044 	movi	r2,1
 8003430:	00000906 	br	8003458 <poll_mouse+0x1fc>
        }
    } else {
        if (runningdebugflag) {
 8003434:	d0a6e403 	ldbu	r2,-25712(gp)
 8003438:	10803fcc 	andi	r2,r2,255
 800343c:	10000526 	beq	r2,zero,8003454 <poll_mouse+0x1f8>
            runningdebugflag = 0;
 8003440:	d026e405 	stb	zero,-25712(gp)
            printf("initing\n");
 8003444:	01020d74 	movhi	r4,2101
 8003448:	211cec04 	addi	r4,r4,29616
 800344c:	8009a380 	call	8009a38 <puts>
            init_mouse();
 8003450:	80031a40 	call	80031a4 <init_mouse>
        }
    }
    
    return 0;
 8003454:	0005883a 	mov	r2,zero
}
 8003458:	e037883a 	mov	sp,fp
 800345c:	dfc00117 	ldw	ra,4(sp)
 8003460:	df000017 	ldw	fp,0(sp)
 8003464:	dec00204 	addi	sp,sp,8
 8003468:	f800283a 	ret

0800346c <is_clicked>:

int is_clicked(mouse_t* mouse, int button) {
 800346c:	defffd04 	addi	sp,sp,-12
 8003470:	df000215 	stw	fp,8(sp)
 8003474:	df000204 	addi	fp,sp,8
 8003478:	e13ffe15 	stw	r4,-8(fp)
 800347c:	e17fff15 	stw	r5,-4(fp)
    switch (button) {
 8003480:	e0bfff17 	ldw	r2,-4(fp)
 8003484:	10000326 	beq	r2,zero,8003494 <is_clicked+0x28>
 8003488:	10800060 	cmpeqi	r2,r2,1
 800348c:	1000081e 	bne	r2,zero,80034b0 <is_clicked+0x44>
 8003490:	00001106 	br	80034d8 <is_clicked+0x6c>
        case MOUSE_BUTTON_LEFT:
            if (mouse->clicked.left) {
 8003494:	e0bffe17 	ldw	r2,-8(fp)
 8003498:	10800417 	ldw	r2,16(r2)
 800349c:	10000b26 	beq	r2,zero,80034cc <is_clicked+0x60>
                mouse->clicked.left = 0;
 80034a0:	e0bffe17 	ldw	r2,-8(fp)
 80034a4:	10000415 	stw	zero,16(r2)
                return 1;
 80034a8:	00800044 	movi	r2,1
 80034ac:	00000b06 	br	80034dc <is_clicked+0x70>
            }
            break;
        case MOUSE_BUTTON_RIGHT:
            if (mouse->clicked.right) {
 80034b0:	e0bffe17 	ldw	r2,-8(fp)
 80034b4:	10800517 	ldw	r2,20(r2)
 80034b8:	10000626 	beq	r2,zero,80034d4 <is_clicked+0x68>
                mouse->clicked.right = 0;
 80034bc:	e0bffe17 	ldw	r2,-8(fp)
 80034c0:	10000515 	stw	zero,20(r2)
                return 1;
 80034c4:	00800044 	movi	r2,1
 80034c8:	00000406 	br	80034dc <is_clicked+0x70>
        case MOUSE_BUTTON_LEFT:
            if (mouse->clicked.left) {
                mouse->clicked.left = 0;
                return 1;
            }
            break;
 80034cc:	0001883a 	nop
 80034d0:	00000106 	br	80034d8 <is_clicked+0x6c>
        case MOUSE_BUTTON_RIGHT:
            if (mouse->clicked.right) {
                mouse->clicked.right = 0;
                return 1;
            }
            break;
 80034d4:	0001883a 	nop
    }
    return 0;
 80034d8:	0005883a 	mov	r2,zero
 80034dc:	e037883a 	mov	sp,fp
 80034e0:	df000017 	ldw	fp,0(sp)
 80034e4:	dec00104 	addi	sp,sp,4
 80034e8:	f800283a 	ret

080034ec <enable_master_timer>:
    uint64_t time;
} timer_regs_t;

timer_regs_t* timer_regs = (timer_regs_t*) TIMER_MEM_LOCATION;

void enable_master_timer() { timer_regs->enabled = 1; }
 80034ec:	deffff04 	addi	sp,sp,-4
 80034f0:	df000015 	stw	fp,0(sp)
 80034f4:	d839883a 	mov	fp,sp
 80034f8:	d0a00217 	ldw	r2,-32760(gp)
 80034fc:	00c00044 	movi	r3,1
 8003500:	10c00015 	stw	r3,0(r2)
 8003504:	0001883a 	nop
 8003508:	e037883a 	mov	sp,fp
 800350c:	df000017 	ldw	fp,0(sp)
 8003510:	dec00104 	addi	sp,sp,4
 8003514:	f800283a 	ret

08003518 <disable_master_timer>:

void disable_master_timer() { timer_regs->enabled = 0; }
 8003518:	deffff04 	addi	sp,sp,-4
 800351c:	df000015 	stw	fp,0(sp)
 8003520:	d839883a 	mov	fp,sp
 8003524:	d0a00217 	ldw	r2,-32760(gp)
 8003528:	10000015 	stw	zero,0(r2)
 800352c:	0001883a 	nop
 8003530:	e037883a 	mov	sp,fp
 8003534:	df000017 	ldw	fp,0(sp)
 8003538:	dec00104 	addi	sp,sp,4
 800353c:	f800283a 	ret

08003540 <get_time>:

float get_time() { return timer_regs->time / (float) 1e7; }
 8003540:	defffe04 	addi	sp,sp,-8
 8003544:	dfc00115 	stw	ra,4(sp)
 8003548:	df000015 	stw	fp,0(sp)
 800354c:	d839883a 	mov	fp,sp
 8003550:	d1200217 	ldw	r4,-32760(gp)
 8003554:	20800117 	ldw	r2,4(r4)
 8003558:	20c00217 	ldw	r3,8(r4)
 800355c:	1009883a 	mov	r4,r2
 8003560:	180b883a 	mov	r5,r3
 8003564:	80059c00 	call	80059c0 <__floatundisf>
 8003568:	1007883a 	mov	r3,r2
 800356c:	0152c674 	movhi	r5,19225
 8003570:	2965a004 	addi	r5,r5,-27008
 8003574:	1809883a 	mov	r4,r3
 8003578:	80066fc0 	call	80066fc <__divsf3>
 800357c:	1009883a 	mov	r4,r2
 8003580:	2007883a 	mov	r3,r4
 8003584:	1805883a 	mov	r2,r3
 8003588:	e037883a 	mov	sp,fp
 800358c:	dfc00117 	ldw	ra,4(sp)
 8003590:	df000017 	ldw	fp,0(sp)
 8003594:	dec00204 	addi	sp,sp,8
 8003598:	f800283a 	ret

0800359c <get_micros>:

uint64_t get_micros() { return timer_regs->time / 10; }
 800359c:	defffe04 	addi	sp,sp,-8
 80035a0:	dfc00115 	stw	ra,4(sp)
 80035a4:	df000015 	stw	fp,0(sp)
 80035a8:	d839883a 	mov	fp,sp
 80035ac:	d1200217 	ldw	r4,-32760(gp)
 80035b0:	20800117 	ldw	r2,4(r4)
 80035b4:	20c00217 	ldw	r3,8(r4)
 80035b8:	01800284 	movi	r6,10
 80035bc:	000f883a 	mov	r7,zero
 80035c0:	1009883a 	mov	r4,r2
 80035c4:	180b883a 	mov	r5,r3
 80035c8:	8005a5c0 	call	8005a5c <__udivdi3>
 80035cc:	100f883a 	mov	r7,r2
 80035d0:	1811883a 	mov	r8,r3
 80035d4:	380b883a 	mov	r5,r7
 80035d8:	400d883a 	mov	r6,r8
 80035dc:	2807883a 	mov	r3,r5
 80035e0:	3009883a 	mov	r4,r6
 80035e4:	1805883a 	mov	r2,r3
 80035e8:	2007883a 	mov	r3,r4
 80035ec:	e037883a 	mov	sp,fp
 80035f0:	dfc00117 	ldw	ra,4(sp)
 80035f4:	df000017 	ldw	fp,0(sp)
 80035f8:	dec00204 	addi	sp,sp,8
 80035fc:	f800283a 	ret

08003600 <create_rate>:

rate_t create_rate(float hz) {
 8003600:	defff904 	addi	sp,sp,-28
 8003604:	dfc00615 	stw	ra,24(sp)
 8003608:	df000515 	stw	fp,20(sp)
 800360c:	df000504 	addi	fp,sp,20
 8003610:	e13ffe15 	stw	r4,-8(fp)
 8003614:	e17fff15 	stw	r5,-4(fp)
    rate_t rate = {
        timer_regs->time,
 8003618:	d1200217 	ldw	r4,-32760(gp)
 800361c:	20800117 	ldw	r2,4(r4)
 8003620:	20c00217 	ldw	r3,8(r4)
float get_time() { return timer_regs->time / (float) 1e7; }

uint64_t get_micros() { return timer_regs->time / 10; }

rate_t create_rate(float hz) {
    rate_t rate = {
 8003624:	e0bffb15 	stw	r2,-20(fp)
 8003628:	e0fffc15 	stw	r3,-16(fp)
        timer_regs->time,
        (uint32_t) ((1 / hz) * 1e7)
 800362c:	e17fff17 	ldw	r5,-4(fp)
 8003630:	010fe034 	movhi	r4,16256
 8003634:	80066fc0 	call	80066fc <__divsf3>
 8003638:	1007883a 	mov	r3,r2
 800363c:	1805883a 	mov	r2,r3
 8003640:	1009883a 	mov	r4,r2
 8003644:	80093800 	call	8009380 <__extendsfdf2>
 8003648:	1011883a 	mov	r8,r2
 800364c:	1813883a 	mov	r9,r3
 8003650:	000d883a 	mov	r6,zero
 8003654:	01d058f4 	movhi	r7,16739
 8003658:	39c4b404 	addi	r7,r7,4816
 800365c:	4009883a 	mov	r4,r8
 8003660:	480b883a 	mov	r5,r9
 8003664:	80080f00 	call	80080f0 <__muldf3>
 8003668:	1009883a 	mov	r4,r2
 800366c:	180b883a 	mov	r5,r3
 8003670:	2005883a 	mov	r2,r4
 8003674:	2807883a 	mov	r3,r5
 8003678:	1009883a 	mov	r4,r2
 800367c:	180b883a 	mov	r5,r3
 8003680:	800594c0 	call	800594c <__fixunsdfsi>
float get_time() { return timer_regs->time / (float) 1e7; }

uint64_t get_micros() { return timer_regs->time / 10; }

rate_t create_rate(float hz) {
    rate_t rate = {
 8003684:	e0bffd15 	stw	r2,-12(fp)
        timer_regs->time,
        (uint32_t) ((1 / hz) * 1e7)
    };
    return rate;
 8003688:	e0bffe17 	ldw	r2,-8(fp)
 800368c:	e0fffb17 	ldw	r3,-20(fp)
 8003690:	10c00015 	stw	r3,0(r2)
 8003694:	e0fffc17 	ldw	r3,-16(fp)
 8003698:	10c00115 	stw	r3,4(r2)
 800369c:	e0fffd17 	ldw	r3,-12(fp)
 80036a0:	10c00215 	stw	r3,8(r2)
}
 80036a4:	e0bffe17 	ldw	r2,-8(fp)
 80036a8:	e037883a 	mov	sp,fp
 80036ac:	dfc00117 	ldw	ra,4(sp)
 80036b0:	df000017 	ldw	fp,0(sp)
 80036b4:	dec00204 	addi	sp,sp,8
 80036b8:	f800283a 	ret

080036bc <is_ready>:

int is_ready(rate_t* rate) {
 80036bc:	defffb04 	addi	sp,sp,-20
 80036c0:	df000415 	stw	fp,16(sp)
 80036c4:	df000404 	addi	fp,sp,16
 80036c8:	e13fff15 	stw	r4,-4(fp)
    uint64_t time = timer_regs->time;
 80036cc:	d0a00217 	ldw	r2,-32760(gp)
 80036d0:	10c00117 	ldw	r3,4(r2)
 80036d4:	e0fffc15 	stw	r3,-16(fp)
 80036d8:	10800217 	ldw	r2,8(r2)
 80036dc:	e0bffd15 	stw	r2,-12(fp)
    int diff = time - (rate->last_time + rate->inv_rate);
 80036e0:	e17ffc17 	ldw	r5,-16(fp)
 80036e4:	e13fff17 	ldw	r4,-4(fp)
 80036e8:	20800017 	ldw	r2,0(r4)
 80036ec:	20c00117 	ldw	r3,4(r4)
 80036f0:	1007883a 	mov	r3,r2
 80036f4:	e0bfff17 	ldw	r2,-4(fp)
 80036f8:	10800217 	ldw	r2,8(r2)
 80036fc:	1885883a 	add	r2,r3,r2
 8003700:	2885c83a 	sub	r2,r5,r2
 8003704:	e0bffe15 	stw	r2,-8(fp)
    if (diff >= 0) {
 8003708:	e0bffe17 	ldw	r2,-8(fp)
 800370c:	10001c16 	blt	r2,zero,8003780 <is_ready+0xc4>
        if (diff >= rate->inv_rate)
 8003710:	e0bfff17 	ldw	r2,-4(fp)
 8003714:	10800217 	ldw	r2,8(r2)
 8003718:	e0fffe17 	ldw	r3,-8(fp)
 800371c:	18800636 	bltu	r3,r2,8003738 <is_ready+0x7c>
            rate->last_time = time;
 8003720:	e0bfff17 	ldw	r2,-4(fp)
 8003724:	e0fffc17 	ldw	r3,-16(fp)
 8003728:	10c00015 	stw	r3,0(r2)
 800372c:	e0fffd17 	ldw	r3,-12(fp)
 8003730:	10c00115 	stw	r3,4(r2)
 8003734:	00001006 	br	8003778 <is_ready+0xbc>
        else
            rate->last_time = time + diff;
 8003738:	e0bffe17 	ldw	r2,-8(fp)
 800373c:	100d883a 	mov	r6,r2
 8003740:	1005d7fa 	srai	r2,r2,31
 8003744:	100f883a 	mov	r7,r2
 8003748:	e13ffc17 	ldw	r4,-16(fp)
 800374c:	e17ffd17 	ldw	r5,-12(fp)
 8003750:	3105883a 	add	r2,r6,r4
 8003754:	1191803a 	cmpltu	r8,r2,r6
 8003758:	3947883a 	add	r3,r7,r5
 800375c:	40c9883a 	add	r4,r8,r3
 8003760:	2007883a 	mov	r3,r4
 8003764:	1009883a 	mov	r4,r2
 8003768:	180b883a 	mov	r5,r3
 800376c:	e0bfff17 	ldw	r2,-4(fp)
 8003770:	11000015 	stw	r4,0(r2)
 8003774:	11400115 	stw	r5,4(r2)
        return 1;
 8003778:	00800044 	movi	r2,1
 800377c:	00000106 	br	8003784 <is_ready+0xc8>
    }
    return 0;
 8003780:	0005883a 	mov	r2,zero
}
 8003784:	e037883a 	mov	sp,fp
 8003788:	df000017 	ldw	fp,0(sp)
 800378c:	dec00104 	addi	sp,sp,4
 8003790:	f800283a 	ret

08003794 <HIDMProbe>:
/* HID Mouse probe. Called from USB state machine.                          */
/* assumes configuration length is less than 256 bytes                      */
/* looks for Class:03, Subclass: 01, Protocol: 02 in interface descriptor   */
/* sets mouse in boot protocol                                              */
/* assumes single configuration and interface configuration 0               */
BOOL HIDMProbe(BYTE addr, DWORD flags) {
 8003794:	defff204 	addi	sp,sp,-56
 8003798:	dfc00d15 	stw	ra,52(sp)
 800379c:	df000c15 	stw	fp,48(sp)
 80037a0:	df000c04 	addi	fp,sp,48
 80037a4:	2005883a 	mov	r2,r4
 80037a8:	e17fff15 	stw	r5,-4(fp)
 80037ac:	e0bffe05 	stb	r2,-8(fp)
	BYTE tmpbyte;
	BYTE rcode;
	BYTE confvalue;
	WORD total_length;
	USB_DESCR* data_ptr = (USB_DESCR *) &bigbuf;
 80037b0:	00821234 	movhi	r2,2120
 80037b4:	109b9a04 	addi	r2,r2,28264
 80037b8:	e0bffa15 	stw	r2,-24(fp)
	BYTE* byte_ptr = bigbuf;
 80037bc:	00821234 	movhi	r2,2120
 80037c0:	109b9a04 	addi	r2,r2,28264
 80037c4:	e0bffb15 	stw	r2,-20(fp)
	rcode = XferGetConfDescr(addr, 0, CONF_DESCR_LEN, 0, bigbuf); //get configuration descriptor
 80037c8:	e0fffe03 	ldbu	r3,-8(fp)
 80037cc:	00821234 	movhi	r2,2120
 80037d0:	109b9a04 	addi	r2,r2,28264
 80037d4:	d8800415 	stw	r2,16(sp)
 80037d8:	00800244 	movi	r2,9
 80037dc:	d8800315 	stw	r2,12(sp)
 80037e0:	d8000215 	stw	zero,8(sp)
 80037e4:	00800084 	movi	r2,2
 80037e8:	d8800115 	stw	r2,4(sp)
 80037ec:	d8000015 	stw	zero,0(sp)
 80037f0:	01c00184 	movi	r7,6
 80037f4:	01802004 	movi	r6,128
 80037f8:	000b883a 	mov	r5,zero
 80037fc:	1809883a 	mov	r4,r3
 8003800:	800480c0 	call	800480c <XferCtrlReq>
 8003804:	e0bffc05 	stb	r2,-16(fp)
	if (rcode) {   //error handling
 8003808:	e0bffc03 	ldbu	r2,-16(fp)
 800380c:	10000226 	beq	r2,zero,8003818 <HIDMProbe+0x84>
		//printf("unable to get configuration descriptor");
		return (FALSE);
 8003810:	0005883a 	mov	r2,zero
 8003814:	0000dc06 	br	8003b88 <HIDMProbe+0x3f4>
	}
	if (data_ptr->descr.config.wTotalLength > 256) {
 8003818:	e0bffa17 	ldw	r2,-24(fp)
 800381c:	1080008b 	ldhu	r2,2(r2)
 8003820:	10bfffcc 	andi	r2,r2,65535
 8003824:	10804070 	cmpltui	r2,r2,257
 8003828:	1000031e 	bne	r2,zero,8003838 <HIDMProbe+0xa4>
		total_length = 256;
 800382c:	00804004 	movi	r2,256
 8003830:	e0bff90d 	sth	r2,-28(fp)
 8003834:	00000306 	br	8003844 <HIDMProbe+0xb0>
	} else {
		total_length = data_ptr->descr.config.wTotalLength;
 8003838:	e0bffa17 	ldw	r2,-24(fp)
 800383c:	1080008b 	ldhu	r2,2(r2)
 8003840:	e0bff90d 	sth	r2,-28(fp)
	}
	rcode = XferGetConfDescr(addr, 0, total_length, 0, bigbuf); //get the whole configuration
 8003844:	e13ffe03 	ldbu	r4,-8(fp)
 8003848:	e0fff90b 	ldhu	r3,-28(fp)
 800384c:	00821234 	movhi	r2,2120
 8003850:	109b9a04 	addi	r2,r2,28264
 8003854:	d8800415 	stw	r2,16(sp)
 8003858:	d8c00315 	stw	r3,12(sp)
 800385c:	d8000215 	stw	zero,8(sp)
 8003860:	00800084 	movi	r2,2
 8003864:	d8800115 	stw	r2,4(sp)
 8003868:	d8000015 	stw	zero,0(sp)
 800386c:	01c00184 	movi	r7,6
 8003870:	01802004 	movi	r6,128
 8003874:	000b883a 	mov	r5,zero
 8003878:	800480c0 	call	800480c <XferCtrlReq>
 800387c:	e0bffc05 	stb	r2,-16(fp)
	if (rcode) {   //error handling
 8003880:	e0bffc03 	ldbu	r2,-16(fp)
 8003884:	10000226 	beq	r2,zero,8003890 <HIDMProbe+0xfc>
		//printf("unable to get configuration");
		return (FALSE);
 8003888:	0005883a 	mov	r2,zero
 800388c:	0000be06 	br	8003b88 <HIDMProbe+0x3f4>
	}
	confvalue = data_ptr->descr.config.bConfigurationValue;
 8003890:	e0bffa17 	ldw	r2,-24(fp)
 8003894:	10800143 	ldbu	r2,5(r2)
 8003898:	e0bffc45 	stb	r2,-15(fp)
	//printf("checking configuration value (length: %d): ",
	//		data_ptr->descr.config.wTotalLength);
	//for (int i = 0; i < data_ptr->descr.config.wTotalLength; i++) {
		//printf("%x ", (unsigned char) (bigbuf[i] & 0xff));
	//}
	while (byte_ptr < bigbuf + total_length) {
 800389c:	0000b306 	br	8003b6c <HIDMProbe+0x3d8>
		if (data_ptr->descr.config.bDescriptorType != USB_DESCRIPTOR_INTERFACE) {
 80038a0:	e0bffa17 	ldw	r2,-24(fp)
 80038a4:	10800043 	ldbu	r2,1(r2)
 80038a8:	10803fcc 	andi	r2,r2,255
 80038ac:	10800120 	cmpeqi	r2,r2,4
 80038b0:	1000091e 	bne	r2,zero,80038d8 <HIDMProbe+0x144>
			byte_ptr = byte_ptr + data_ptr->descr.config.bLength;
 80038b4:	e0bffa17 	ldw	r2,-24(fp)
 80038b8:	10800003 	ldbu	r2,0(r2)
 80038bc:	10803fcc 	andi	r2,r2,255
 80038c0:	e0fffb17 	ldw	r3,-20(fp)
 80038c4:	1885883a 	add	r2,r3,r2
 80038c8:	e0bffb15 	stw	r2,-20(fp)
			data_ptr = (USB_DESCR*) byte_ptr;
 80038cc:	e0bffb17 	ldw	r2,-20(fp)
 80038d0:	e0bffa15 	stw	r2,-24(fp)
 80038d4:	0000a506 	br	8003b6c <HIDMProbe+0x3d8>
		} // if( data_ptr->descr.config.bDescriptorType != USB_DESCRIPTOR_INTERFACE
		else {
			//printf("starting interface parsing at byte location %d\n",
			//		data_ptr->descr.config.bLength);
			BYTE class = data_ptr->descr.interface.bInterfaceClass;
 80038d8:	e0bffa17 	ldw	r2,-24(fp)
 80038dc:	10800143 	ldbu	r2,5(r2)
 80038e0:	e0bffc85 	stb	r2,-14(fp)
			BYTE subclass = data_ptr->descr.interface.bInterfaceSubClass;
 80038e4:	e0bffa17 	ldw	r2,-24(fp)
 80038e8:	10800183 	ldbu	r2,6(r2)
 80038ec:	e0bffcc5 	stb	r2,-13(fp)
			BYTE protocol = data_ptr->descr.interface.bInterfaceProtocol;
 80038f0:	e0bffa17 	ldw	r2,-24(fp)
 80038f4:	108001c3 	ldbu	r2,7(r2)
 80038f8:	e0bffd05 	stb	r2,-12(fp)
			//printf("class %x, subclass %x, protocol %x,\n", class, subclass,
			//		protocol);
			//interface descriptor
			if (class == HID_INTF && subclass == BOOT_INTF_SUBCLASS
 80038fc:	e0bffc83 	ldbu	r2,-14(fp)
 8003900:	108000d8 	cmpnei	r2,r2,3
 8003904:	1000971e 	bne	r2,zero,8003b64 <HIDMProbe+0x3d0>
 8003908:	e0bffcc3 	ldbu	r2,-13(fp)
 800390c:	10800058 	cmpnei	r2,r2,1
 8003910:	1000941e 	bne	r2,zero,8003b64 <HIDMProbe+0x3d0>
					&& protocol == HID_PROTOCOL_MOUSE) {
 8003914:	e0bffd03 	ldbu	r2,-12(fp)
 8003918:	10800098 	cmpnei	r2,r2,2
 800391c:	1000911e 	bne	r2,zero,8003b64 <HIDMProbe+0x3d0>
				//detected a mouse
				devtable[addr].devclass = HID_M;                  //device class
 8003920:	e0fffe03 	ldbu	r3,-8(fp)
 8003924:	00821234 	movhi	r2,2120
 8003928:	109bda04 	addi	r2,r2,28520
 800392c:	180690fa 	slli	r3,r3,3
 8003930:	10c5883a 	add	r2,r2,r3
 8003934:	10800104 	addi	r2,r2,4
 8003938:	00c00084 	movi	r3,2
 800393c:	10c00005 	stb	r3,0(r2)
				tmpbyte = devtable[addr].epinfo->MaxPktSize;
 8003940:	e0fffe03 	ldbu	r3,-8(fp)
 8003944:	00821234 	movhi	r2,2120
 8003948:	109bda04 	addi	r2,r2,28520
 800394c:	180690fa 	slli	r3,r3,3
 8003950:	10c5883a 	add	r2,r2,r3
 8003954:	10800017 	ldw	r2,0(r2)
 8003958:	1080008b 	ldhu	r2,2(r2)
 800395c:	e0bffd45 	stb	r2,-11(fp)
				HID_init();                         //initialize data structures
 8003960:	8003fa40 	call	8003fa4 <HID_init>
				devtable[addr].epinfo = hid_ep; //switch endpoint information structure
 8003964:	e0fffe03 	ldbu	r3,-8(fp)
 8003968:	00821234 	movhi	r2,2120
 800396c:	109bda04 	addi	r2,r2,28520
 8003970:	180690fa 	slli	r3,r3,3
 8003974:	10c7883a 	add	r3,r2,r3
 8003978:	00820db4 	movhi	r2,2102
 800397c:	10ab8604 	addi	r2,r2,-20968
 8003980:	18800015 	stw	r2,0(r3)
				devtable[addr].epinfo[0].MaxPktSize = tmpbyte;
 8003984:	e0fffe03 	ldbu	r3,-8(fp)
 8003988:	00821234 	movhi	r2,2120
 800398c:	109bda04 	addi	r2,r2,28520
 8003990:	180690fa 	slli	r3,r3,3
 8003994:	10c5883a 	add	r2,r2,r3
 8003998:	10800017 	ldw	r2,0(r2)
 800399c:	e0fffd43 	ldbu	r3,-11(fp)
 80039a0:	10c0008d 	sth	r3,2(r2)
				hid_device.interface =
						data_ptr->descr.interface.bInterfaceNumber;
 80039a4:	e0bffa17 	ldw	r2,-24(fp)
 80039a8:	10800083 	ldbu	r2,2(r2)
				devtable[addr].devclass = HID_M;                  //device class
				tmpbyte = devtable[addr].epinfo->MaxPktSize;
				HID_init();                         //initialize data structures
				devtable[addr].epinfo = hid_ep; //switch endpoint information structure
				devtable[addr].epinfo[0].MaxPktSize = tmpbyte;
				hid_device.interface =
 80039ac:	d0a6e6c5 	stb	r2,-25701(gp)
						data_ptr->descr.interface.bInterfaceNumber;
				hid_device.addr = addr;
 80039b0:	e0bffe03 	ldbu	r2,-8(fp)
 80039b4:	d0a6e685 	stb	r2,-25702(gp)
				byte_ptr = byte_ptr + data_ptr->descr.config.bLength;
 80039b8:	e0bffa17 	ldw	r2,-24(fp)
 80039bc:	10800003 	ldbu	r2,0(r2)
 80039c0:	10803fcc 	andi	r2,r2,255
 80039c4:	e0fffb17 	ldw	r3,-20(fp)
 80039c8:	1885883a 	add	r2,r3,r2
 80039cc:	e0bffb15 	stw	r2,-20(fp)
				data_ptr = (USB_DESCR*) byte_ptr;
 80039d0:	e0bffb17 	ldw	r2,-20(fp)
 80039d4:	e0bffa15 	stw	r2,-24(fp)
				while (byte_ptr < bigbuf + total_length) {
 80039d8:	00005b06 	br	8003b48 <HIDMProbe+0x3b4>
					if (data_ptr->descr.config.bDescriptorType
 80039dc:	e0bffa17 	ldw	r2,-24(fp)
 80039e0:	10800043 	ldbu	r2,1(r2)
 80039e4:	10803fcc 	andi	r2,r2,255
 80039e8:	10800160 	cmpeqi	r2,r2,5
 80039ec:	1000091e 	bne	r2,zero,8003a14 <HIDMProbe+0x280>
							!= USB_DESCRIPTOR_ENDPOINT) { //skip to endpoint descriptor
						byte_ptr = byte_ptr + data_ptr->descr.config.bLength;
 80039f0:	e0bffa17 	ldw	r2,-24(fp)
 80039f4:	10800003 	ldbu	r2,0(r2)
 80039f8:	10803fcc 	andi	r2,r2,255
 80039fc:	e0fffb17 	ldw	r3,-20(fp)
 8003a00:	1885883a 	add	r2,r3,r2
 8003a04:	e0bffb15 	stw	r2,-20(fp)
						data_ptr = (USB_DESCR*) byte_ptr;
 8003a08:	e0bffb17 	ldw	r2,-20(fp)
 8003a0c:	e0bffa15 	stw	r2,-24(fp)
 8003a10:	00004d06 	br	8003b48 <HIDMProbe+0x3b4>
					} else {
						/* fill endpoint information structure */
						devtable[addr].epinfo[1].epAddr =
 8003a14:	e0fffe03 	ldbu	r3,-8(fp)
 8003a18:	00821234 	movhi	r2,2120
 8003a1c:	109bda04 	addi	r2,r2,28520
 8003a20:	180690fa 	slli	r3,r3,3
 8003a24:	10c5883a 	add	r2,r2,r3
 8003a28:	10800017 	ldw	r2,0(r2)
 8003a2c:	10800204 	addi	r2,r2,8
								data_ptr->descr.endpoint.bEndpointAddress;
 8003a30:	e0fffa17 	ldw	r3,-24(fp)
 8003a34:	18c00083 	ldbu	r3,2(r3)
							!= USB_DESCRIPTOR_ENDPOINT) { //skip to endpoint descriptor
						byte_ptr = byte_ptr + data_ptr->descr.config.bLength;
						data_ptr = (USB_DESCR*) byte_ptr;
					} else {
						/* fill endpoint information structure */
						devtable[addr].epinfo[1].epAddr =
 8003a38:	10c00005 	stb	r3,0(r2)
								data_ptr->descr.endpoint.bEndpointAddress;
						devtable[addr].epinfo[1].Attr =
 8003a3c:	e0fffe03 	ldbu	r3,-8(fp)
 8003a40:	00821234 	movhi	r2,2120
 8003a44:	109bda04 	addi	r2,r2,28520
 8003a48:	180690fa 	slli	r3,r3,3
 8003a4c:	10c5883a 	add	r2,r2,r3
 8003a50:	10800017 	ldw	r2,0(r2)
 8003a54:	10800204 	addi	r2,r2,8
								data_ptr->descr.endpoint.bmAttributes;
 8003a58:	e0fffa17 	ldw	r3,-24(fp)
 8003a5c:	18c000c3 	ldbu	r3,3(r3)
						data_ptr = (USB_DESCR*) byte_ptr;
					} else {
						/* fill endpoint information structure */
						devtable[addr].epinfo[1].epAddr =
								data_ptr->descr.endpoint.bEndpointAddress;
						devtable[addr].epinfo[1].Attr =
 8003a60:	10c00045 	stb	r3,1(r2)
								data_ptr->descr.endpoint.bmAttributes;
						devtable[addr].epinfo[1].MaxPktSize =
 8003a64:	e0fffe03 	ldbu	r3,-8(fp)
 8003a68:	00821234 	movhi	r2,2120
 8003a6c:	109bda04 	addi	r2,r2,28520
 8003a70:	180690fa 	slli	r3,r3,3
 8003a74:	10c5883a 	add	r2,r2,r3
 8003a78:	10800017 	ldw	r2,0(r2)
 8003a7c:	10800204 	addi	r2,r2,8
								data_ptr->descr.endpoint.wMaxPacketSize;
 8003a80:	e0fffa17 	ldw	r3,-24(fp)
 8003a84:	18c0010b 	ldhu	r3,4(r3)
						/* fill endpoint information structure */
						devtable[addr].epinfo[1].epAddr =
								data_ptr->descr.endpoint.bEndpointAddress;
						devtable[addr].epinfo[1].Attr =
								data_ptr->descr.endpoint.bmAttributes;
						devtable[addr].epinfo[1].MaxPktSize =
 8003a88:	10c0008d 	sth	r3,2(r2)
								data_ptr->descr.endpoint.wMaxPacketSize;
						devtable[addr].epinfo[1].Interval =
 8003a8c:	e0fffe03 	ldbu	r3,-8(fp)
 8003a90:	00821234 	movhi	r2,2120
 8003a94:	109bda04 	addi	r2,r2,28520
 8003a98:	180690fa 	slli	r3,r3,3
 8003a9c:	10c5883a 	add	r2,r2,r3
 8003aa0:	10800017 	ldw	r2,0(r2)
 8003aa4:	10800204 	addi	r2,r2,8
								data_ptr->descr.endpoint.bInterval;
 8003aa8:	e0fffa17 	ldw	r3,-24(fp)
 8003aac:	18c00183 	ldbu	r3,6(r3)
								data_ptr->descr.endpoint.bEndpointAddress;
						devtable[addr].epinfo[1].Attr =
								data_ptr->descr.endpoint.bmAttributes;
						devtable[addr].epinfo[1].MaxPktSize =
								data_ptr->descr.endpoint.wMaxPacketSize;
						devtable[addr].epinfo[1].Interval =
 8003ab0:	10c00105 	stb	r3,4(r2)
								data_ptr->descr.endpoint.bInterval;
						// devtable[ addr ].epinfo[ 1 ].rcvToggle = bmRCVTOG0;
						/* configure device */
						rcode = XferSetConf(addr, 0, confvalue); //set configuration
 8003ab4:	e0fffe03 	ldbu	r3,-8(fp)
 8003ab8:	e0bffc43 	ldbu	r2,-15(fp)
 8003abc:	d8000415 	stw	zero,16(sp)
 8003ac0:	d8000315 	stw	zero,12(sp)
 8003ac4:	d8000215 	stw	zero,8(sp)
 8003ac8:	d8000115 	stw	zero,4(sp)
 8003acc:	d8800015 	stw	r2,0(sp)
 8003ad0:	01c00244 	movi	r7,9
 8003ad4:	000d883a 	mov	r6,zero
 8003ad8:	000b883a 	mov	r5,zero
 8003adc:	1809883a 	mov	r4,r3
 8003ae0:	800480c0 	call	800480c <XferCtrlReq>
 8003ae4:	e0bffc05 	stb	r2,-16(fp)
						if (rcode) {   //error handling
 8003ae8:	e0bffc03 	ldbu	r2,-16(fp)
 8003aec:	10000226 	beq	r2,zero,8003af8 <HIDMProbe+0x364>
							return (FALSE);
 8003af0:	0005883a 	mov	r2,zero
 8003af4:	00002406 	br	8003b88 <HIDMProbe+0x3f4>
						}
						rcode = XferSetProto(addr, 0, hid_device.interface,
 8003af8:	e0fffe03 	ldbu	r3,-8(fp)
 8003afc:	d0a6e6c3 	ldbu	r2,-25701(gp)
 8003b00:	10803fcc 	andi	r2,r2,255
 8003b04:	d8000415 	stw	zero,16(sp)
 8003b08:	d8000315 	stw	zero,12(sp)
 8003b0c:	d8800215 	stw	r2,8(sp)
 8003b10:	d8000115 	stw	zero,4(sp)
 8003b14:	d8000015 	stw	zero,0(sp)
 8003b18:	01c002c4 	movi	r7,11
 8003b1c:	01800844 	movi	r6,33
 8003b20:	000b883a 	mov	r5,zero
 8003b24:	1809883a 	mov	r4,r3
 8003b28:	800480c0 	call	800480c <XferCtrlReq>
 8003b2c:	e0bffc05 	stb	r2,-16(fp)
								BOOT_PROTOCOL);
						if (rcode) {   //error handling
 8003b30:	e0bffc03 	ldbu	r2,-16(fp)
 8003b34:	10000226 	beq	r2,zero,8003b40 <HIDMProbe+0x3ac>
							return (FALSE);
 8003b38:	0005883a 	mov	r2,zero
 8003b3c:	00001206 	br	8003b88 <HIDMProbe+0x3f4>
						} else {
							return (TRUE);
 8003b40:	00800044 	movi	r2,1
 8003b44:	00001006 	br	8003b88 <HIDMProbe+0x3f4>
				hid_device.interface =
						data_ptr->descr.interface.bInterfaceNumber;
				hid_device.addr = addr;
				byte_ptr = byte_ptr + data_ptr->descr.config.bLength;
				data_ptr = (USB_DESCR*) byte_ptr;
				while (byte_ptr < bigbuf + total_length) {
 8003b48:	e0fff90b 	ldhu	r3,-28(fp)
 8003b4c:	00821234 	movhi	r2,2120
 8003b50:	109b9a04 	addi	r2,r2,28264
 8003b54:	1885883a 	add	r2,r3,r2
 8003b58:	e0fffb17 	ldw	r3,-20(fp)
 8003b5c:	18bf9f36 	bltu	r3,r2,80039dc <__alt_data_end+0xfc0039dc>
			BYTE subclass = data_ptr->descr.interface.bInterfaceSubClass;
			BYTE protocol = data_ptr->descr.interface.bInterfaceProtocol;
			//printf("class %x, subclass %x, protocol %x,\n", class, subclass,
			//		protocol);
			//interface descriptor
			if (class == HID_INTF && subclass == BOOT_INTF_SUBCLASS
 8003b60:	00000206 	br	8003b6c <HIDMProbe+0x3d8>
						}
					}
				}   //while( byte_ptr....
			}   //if (Class matches
			else { //if class don't match; die on first interface. Not really correct
				return (FALSE);
 8003b64:	0005883a 	mov	r2,zero
 8003b68:	00000706 	br	8003b88 <HIDMProbe+0x3f4>
	//printf("checking configuration value (length: %d): ",
	//		data_ptr->descr.config.wTotalLength);
	//for (int i = 0; i < data_ptr->descr.config.wTotalLength; i++) {
		//printf("%x ", (unsigned char) (bigbuf[i] & 0xff));
	//}
	while (byte_ptr < bigbuf + total_length) {
 8003b6c:	e0fff90b 	ldhu	r3,-28(fp)
 8003b70:	00821234 	movhi	r2,2120
 8003b74:	109b9a04 	addi	r2,r2,28264
 8003b78:	1885883a 	add	r2,r3,r2
 8003b7c:	e0fffb17 	ldw	r3,-20(fp)
 8003b80:	18bf4736 	bltu	r3,r2,80038a0 <__alt_data_end+0xfc0038a0>
			else { //if class don't match; die on first interface. Not really correct
				return (FALSE);
			}
		} //else if( data_ptr->
	} // while( byte_ptr < &buf + total_length
	return (FALSE);
 8003b84:	0005883a 	mov	r2,zero
}
 8003b88:	e037883a 	mov	sp,fp
 8003b8c:	dfc00117 	ldw	ra,4(sp)
 8003b90:	df000017 	ldw	fp,0(sp)
 8003b94:	dec00204 	addi	sp,sp,8
 8003b98:	f800283a 	ret

08003b9c <HIDKProbe>:
/* HID Keyboard probe. Called from USB state machine.                           */
/* assumes configuration length is less than 256 bytes                          */
/* looks for Class:03, Subclass: 01, Protocol: 01 in interface descriptor       */
/* sets keyboard in boot protocol                                               */
/* assumes single configuration, single endpoint, and interface configuration 0 */
BOOL HIDKProbe(BYTE addr, DWORD flags) {
 8003b9c:	defff204 	addi	sp,sp,-56
 8003ba0:	dfc00d15 	stw	ra,52(sp)
 8003ba4:	df000c15 	stw	fp,48(sp)
 8003ba8:	df000c04 	addi	fp,sp,48
 8003bac:	2005883a 	mov	r2,r4
 8003bb0:	e17fff15 	stw	r5,-4(fp)
 8003bb4:	e0bffe05 	stb	r2,-8(fp)
	BYTE tmpbyte;
	BYTE rcode;
	BYTE confvalue;
	WORD total_length;
	USB_DESCR* data_ptr = (USB_DESCR *) &bigbuf;
 8003bb8:	00821234 	movhi	r2,2120
 8003bbc:	109b9a04 	addi	r2,r2,28264
 8003bc0:	e0bffa15 	stw	r2,-24(fp)
	BYTE* byte_ptr = bigbuf;
 8003bc4:	00821234 	movhi	r2,2120
 8003bc8:	109b9a04 	addi	r2,r2,28264
 8003bcc:	e0bffb15 	stw	r2,-20(fp)
	rcode = XferGetConfDescr(addr, 0, CONF_DESCR_LEN, 0, bigbuf); //get configuration descriptor
 8003bd0:	e0fffe03 	ldbu	r3,-8(fp)
 8003bd4:	00821234 	movhi	r2,2120
 8003bd8:	109b9a04 	addi	r2,r2,28264
 8003bdc:	d8800415 	stw	r2,16(sp)
 8003be0:	00800244 	movi	r2,9
 8003be4:	d8800315 	stw	r2,12(sp)
 8003be8:	d8000215 	stw	zero,8(sp)
 8003bec:	00800084 	movi	r2,2
 8003bf0:	d8800115 	stw	r2,4(sp)
 8003bf4:	d8000015 	stw	zero,0(sp)
 8003bf8:	01c00184 	movi	r7,6
 8003bfc:	01802004 	movi	r6,128
 8003c00:	000b883a 	mov	r5,zero
 8003c04:	1809883a 	mov	r4,r3
 8003c08:	800480c0 	call	800480c <XferCtrlReq>
 8003c0c:	e0bffc05 	stb	r2,-16(fp)
	if (rcode) {   //error handling           
 8003c10:	e0bffc03 	ldbu	r2,-16(fp)
 8003c14:	10000226 	beq	r2,zero,8003c20 <HIDKProbe+0x84>
		return (FALSE);
 8003c18:	0005883a 	mov	r2,zero
 8003c1c:	0000dc06 	br	8003f90 <HIDKProbe+0x3f4>
	}
	if (data_ptr->descr.config.wTotalLength > 256) {
 8003c20:	e0bffa17 	ldw	r2,-24(fp)
 8003c24:	1080008b 	ldhu	r2,2(r2)
 8003c28:	10bfffcc 	andi	r2,r2,65535
 8003c2c:	10804070 	cmpltui	r2,r2,257
 8003c30:	1000031e 	bne	r2,zero,8003c40 <HIDKProbe+0xa4>
		total_length = 256;
 8003c34:	00804004 	movi	r2,256
 8003c38:	e0bff90d 	sth	r2,-28(fp)
 8003c3c:	00000306 	br	8003c4c <HIDKProbe+0xb0>
	} else {
		total_length = data_ptr->descr.config.wTotalLength;
 8003c40:	e0bffa17 	ldw	r2,-24(fp)
 8003c44:	1080008b 	ldhu	r2,2(r2)
 8003c48:	e0bff90d 	sth	r2,-28(fp)
	}
	rcode = XferGetConfDescr(addr, 0, total_length, 0, bigbuf); //get the whole configuration
 8003c4c:	e13ffe03 	ldbu	r4,-8(fp)
 8003c50:	e0fff90b 	ldhu	r3,-28(fp)
 8003c54:	00821234 	movhi	r2,2120
 8003c58:	109b9a04 	addi	r2,r2,28264
 8003c5c:	d8800415 	stw	r2,16(sp)
 8003c60:	d8c00315 	stw	r3,12(sp)
 8003c64:	d8000215 	stw	zero,8(sp)
 8003c68:	00800084 	movi	r2,2
 8003c6c:	d8800115 	stw	r2,4(sp)
 8003c70:	d8000015 	stw	zero,0(sp)
 8003c74:	01c00184 	movi	r7,6
 8003c78:	01802004 	movi	r6,128
 8003c7c:	000b883a 	mov	r5,zero
 8003c80:	800480c0 	call	800480c <XferCtrlReq>
 8003c84:	e0bffc05 	stb	r2,-16(fp)
	if (rcode) {   //error handling
 8003c88:	e0bffc03 	ldbu	r2,-16(fp)
 8003c8c:	10000226 	beq	r2,zero,8003c98 <HIDKProbe+0xfc>
		return (FALSE);
 8003c90:	0005883a 	mov	r2,zero
 8003c94:	0000be06 	br	8003f90 <HIDKProbe+0x3f4>
	}
	confvalue = data_ptr->descr.config.bConfigurationValue; //save configuration value to use later
 8003c98:	e0bffa17 	ldw	r2,-24(fp)
 8003c9c:	10800143 	ldbu	r2,5(r2)
 8003ca0:	e0bffc45 	stb	r2,-15(fp)
	while (byte_ptr < bigbuf + total_length) {             //parse configuration
 8003ca4:	0000b306 	br	8003f74 <HIDKProbe+0x3d8>
		if (data_ptr->descr.config.bDescriptorType != USB_DESCRIPTOR_INTERFACE) { //skip to the next descriptor
 8003ca8:	e0bffa17 	ldw	r2,-24(fp)
 8003cac:	10800043 	ldbu	r2,1(r2)
 8003cb0:	10803fcc 	andi	r2,r2,255
 8003cb4:	10800120 	cmpeqi	r2,r2,4
 8003cb8:	1000091e 	bne	r2,zero,8003ce0 <HIDKProbe+0x144>
			byte_ptr = byte_ptr + data_ptr->descr.config.bLength;
 8003cbc:	e0bffa17 	ldw	r2,-24(fp)
 8003cc0:	10800003 	ldbu	r2,0(r2)
 8003cc4:	10803fcc 	andi	r2,r2,255
 8003cc8:	e0fffb17 	ldw	r3,-20(fp)
 8003ccc:	1885883a 	add	r2,r3,r2
 8003cd0:	e0bffb15 	stw	r2,-20(fp)
			data_ptr = (USB_DESCR*) byte_ptr;
 8003cd4:	e0bffb17 	ldw	r2,-20(fp)
 8003cd8:	e0bffa15 	stw	r2,-24(fp)
 8003cdc:	0000a506 	br	8003f74 <HIDKProbe+0x3d8>
		} // if( data_ptr->descr.config.bDescriptorType != USB_DESCRIPTOR_INTERFACE
		else {
			//printf("starting interface parsing at byte location %d\n",
			//		data_ptr->descr.config.bLength);
			BYTE class = data_ptr->descr.interface.bInterfaceClass;
 8003ce0:	e0bffa17 	ldw	r2,-24(fp)
 8003ce4:	10800143 	ldbu	r2,5(r2)
 8003ce8:	e0bffc85 	stb	r2,-14(fp)
			BYTE subclass = data_ptr->descr.interface.bInterfaceSubClass;
 8003cec:	e0bffa17 	ldw	r2,-24(fp)
 8003cf0:	10800183 	ldbu	r2,6(r2)
 8003cf4:	e0bffcc5 	stb	r2,-13(fp)
			BYTE protocol = data_ptr->descr.interface.bInterfaceProtocol;
 8003cf8:	e0bffa17 	ldw	r2,-24(fp)
 8003cfc:	108001c3 	ldbu	r2,7(r2)
 8003d00:	e0bffd05 	stb	r2,-12(fp)
			//printf("class %x, subclass %x, protocol %x,\n", class, subclass,
			//		protocol);
			//interface descriptor
			if (class == HID_INTF && subclass == BOOT_INTF_SUBCLASS
 8003d04:	e0bffc83 	ldbu	r2,-14(fp)
 8003d08:	108000d8 	cmpnei	r2,r2,3
 8003d0c:	1000971e 	bne	r2,zero,8003f6c <HIDKProbe+0x3d0>
 8003d10:	e0bffcc3 	ldbu	r2,-13(fp)
 8003d14:	10800058 	cmpnei	r2,r2,1
 8003d18:	1000941e 	bne	r2,zero,8003f6c <HIDKProbe+0x3d0>
					&& protocol == HID_PROTOCOL_KEYBOARD) {
 8003d1c:	e0bffd03 	ldbu	r2,-12(fp)
 8003d20:	10800058 	cmpnei	r2,r2,1
 8003d24:	1000911e 	bne	r2,zero,8003f6c <HIDKProbe+0x3d0>
				//detected a keyboard
				devtable[addr].devclass = HID_K;             //fill device class
 8003d28:	e0fffe03 	ldbu	r3,-8(fp)
 8003d2c:	00821234 	movhi	r2,2120
 8003d30:	109bda04 	addi	r2,r2,28520
 8003d34:	180690fa 	slli	r3,r3,3
 8003d38:	10c5883a 	add	r2,r2,r3
 8003d3c:	10800104 	addi	r2,r2,4
 8003d40:	00c00044 	movi	r3,1
 8003d44:	10c00005 	stb	r3,0(r2)
				tmpbyte = devtable[addr].epinfo->MaxPktSize; //save max.packet size
 8003d48:	e0fffe03 	ldbu	r3,-8(fp)
 8003d4c:	00821234 	movhi	r2,2120
 8003d50:	109bda04 	addi	r2,r2,28520
 8003d54:	180690fa 	slli	r3,r3,3
 8003d58:	10c5883a 	add	r2,r2,r3
 8003d5c:	10800017 	ldw	r2,0(r2)
 8003d60:	1080008b 	ldhu	r2,2(r2)
 8003d64:	e0bffd45 	stb	r2,-11(fp)
				HID_init();                         //initialize data structures
 8003d68:	8003fa40 	call	8003fa4 <HID_init>
				devtable[addr].epinfo = hid_ep; //switch endpoint information structure
 8003d6c:	e0fffe03 	ldbu	r3,-8(fp)
 8003d70:	00821234 	movhi	r2,2120
 8003d74:	109bda04 	addi	r2,r2,28520
 8003d78:	180690fa 	slli	r3,r3,3
 8003d7c:	10c7883a 	add	r3,r2,r3
 8003d80:	00820db4 	movhi	r2,2102
 8003d84:	10ab8604 	addi	r2,r2,-20968
 8003d88:	18800015 	stw	r2,0(r3)
				devtable[addr].epinfo[0].MaxPktSize = tmpbyte; //fill in max.packet size
 8003d8c:	e0fffe03 	ldbu	r3,-8(fp)
 8003d90:	00821234 	movhi	r2,2120
 8003d94:	109bda04 	addi	r2,r2,28520
 8003d98:	180690fa 	slli	r3,r3,3
 8003d9c:	10c5883a 	add	r2,r2,r3
 8003da0:	10800017 	ldw	r2,0(r2)
 8003da4:	e0fffd43 	ldbu	r3,-11(fp)
 8003da8:	10c0008d 	sth	r3,2(r2)
				hid_device.interface =
						data_ptr->descr.interface.bInterfaceNumber; //fill in interface number to be used in HID requests
 8003dac:	e0bffa17 	ldw	r2,-24(fp)
 8003db0:	10800083 	ldbu	r2,2(r2)
				devtable[addr].devclass = HID_K;             //fill device class
				tmpbyte = devtable[addr].epinfo->MaxPktSize; //save max.packet size
				HID_init();                         //initialize data structures
				devtable[addr].epinfo = hid_ep; //switch endpoint information structure
				devtable[addr].epinfo[0].MaxPktSize = tmpbyte; //fill in max.packet size
				hid_device.interface =
 8003db4:	d0a6e6c5 	stb	r2,-25701(gp)
						data_ptr->descr.interface.bInterfaceNumber; //fill in interface number to be used in HID requests
				hid_device.addr = addr;                        //fill in address
 8003db8:	e0bffe03 	ldbu	r2,-8(fp)
 8003dbc:	d0a6e685 	stb	r2,-25702(gp)
				byte_ptr = byte_ptr + data_ptr->descr.config.bLength; //skip to the next descriptor
 8003dc0:	e0bffa17 	ldw	r2,-24(fp)
 8003dc4:	10800003 	ldbu	r2,0(r2)
 8003dc8:	10803fcc 	andi	r2,r2,255
 8003dcc:	e0fffb17 	ldw	r3,-20(fp)
 8003dd0:	1885883a 	add	r2,r3,r2
 8003dd4:	e0bffb15 	stw	r2,-20(fp)
				data_ptr = (USB_DESCR*) byte_ptr;
 8003dd8:	e0bffb17 	ldw	r2,-20(fp)
 8003ddc:	e0bffa15 	stw	r2,-24(fp)
				while (byte_ptr < bigbuf + total_length) {
 8003de0:	00005b06 	br	8003f50 <HIDKProbe+0x3b4>
					if (data_ptr->descr.config.bDescriptorType
 8003de4:	e0bffa17 	ldw	r2,-24(fp)
 8003de8:	10800043 	ldbu	r2,1(r2)
 8003dec:	10803fcc 	andi	r2,r2,255
 8003df0:	10800160 	cmpeqi	r2,r2,5
 8003df4:	1000091e 	bne	r2,zero,8003e1c <HIDKProbe+0x280>
							!= USB_DESCRIPTOR_ENDPOINT) { //skip to endpoint descriptor
						byte_ptr = byte_ptr + data_ptr->descr.config.bLength;
 8003df8:	e0bffa17 	ldw	r2,-24(fp)
 8003dfc:	10800003 	ldbu	r2,0(r2)
 8003e00:	10803fcc 	andi	r2,r2,255
 8003e04:	e0fffb17 	ldw	r3,-20(fp)
 8003e08:	1885883a 	add	r2,r3,r2
 8003e0c:	e0bffb15 	stw	r2,-20(fp)
						data_ptr = (USB_DESCR*) byte_ptr;
 8003e10:	e0bffb17 	ldw	r2,-20(fp)
 8003e14:	e0bffa15 	stw	r2,-24(fp)
 8003e18:	00004d06 	br	8003f50 <HIDKProbe+0x3b4>
					} else {
						/* fill endpoint information structure */
						devtable[addr].epinfo[1].epAddr =
 8003e1c:	e0fffe03 	ldbu	r3,-8(fp)
 8003e20:	00821234 	movhi	r2,2120
 8003e24:	109bda04 	addi	r2,r2,28520
 8003e28:	180690fa 	slli	r3,r3,3
 8003e2c:	10c5883a 	add	r2,r2,r3
 8003e30:	10800017 	ldw	r2,0(r2)
 8003e34:	10800204 	addi	r2,r2,8
								data_ptr->descr.endpoint.bEndpointAddress;
 8003e38:	e0fffa17 	ldw	r3,-24(fp)
 8003e3c:	18c00083 	ldbu	r3,2(r3)
							!= USB_DESCRIPTOR_ENDPOINT) { //skip to endpoint descriptor
						byte_ptr = byte_ptr + data_ptr->descr.config.bLength;
						data_ptr = (USB_DESCR*) byte_ptr;
					} else {
						/* fill endpoint information structure */
						devtable[addr].epinfo[1].epAddr =
 8003e40:	10c00005 	stb	r3,0(r2)
								data_ptr->descr.endpoint.bEndpointAddress;
						devtable[addr].epinfo[1].Attr =
 8003e44:	e0fffe03 	ldbu	r3,-8(fp)
 8003e48:	00821234 	movhi	r2,2120
 8003e4c:	109bda04 	addi	r2,r2,28520
 8003e50:	180690fa 	slli	r3,r3,3
 8003e54:	10c5883a 	add	r2,r2,r3
 8003e58:	10800017 	ldw	r2,0(r2)
 8003e5c:	10800204 	addi	r2,r2,8
								data_ptr->descr.endpoint.bmAttributes;
 8003e60:	e0fffa17 	ldw	r3,-24(fp)
 8003e64:	18c000c3 	ldbu	r3,3(r3)
						data_ptr = (USB_DESCR*) byte_ptr;
					} else {
						/* fill endpoint information structure */
						devtable[addr].epinfo[1].epAddr =
								data_ptr->descr.endpoint.bEndpointAddress;
						devtable[addr].epinfo[1].Attr =
 8003e68:	10c00045 	stb	r3,1(r2)
								data_ptr->descr.endpoint.bmAttributes;
						devtable[addr].epinfo[1].MaxPktSize =
 8003e6c:	e0fffe03 	ldbu	r3,-8(fp)
 8003e70:	00821234 	movhi	r2,2120
 8003e74:	109bda04 	addi	r2,r2,28520
 8003e78:	180690fa 	slli	r3,r3,3
 8003e7c:	10c5883a 	add	r2,r2,r3
 8003e80:	10800017 	ldw	r2,0(r2)
 8003e84:	10800204 	addi	r2,r2,8
								data_ptr->descr.endpoint.wMaxPacketSize;
 8003e88:	e0fffa17 	ldw	r3,-24(fp)
 8003e8c:	18c0010b 	ldhu	r3,4(r3)
						/* fill endpoint information structure */
						devtable[addr].epinfo[1].epAddr =
								data_ptr->descr.endpoint.bEndpointAddress;
						devtable[addr].epinfo[1].Attr =
								data_ptr->descr.endpoint.bmAttributes;
						devtable[addr].epinfo[1].MaxPktSize =
 8003e90:	10c0008d 	sth	r3,2(r2)
								data_ptr->descr.endpoint.wMaxPacketSize;
						devtable[addr].epinfo[1].Interval =
 8003e94:	e0fffe03 	ldbu	r3,-8(fp)
 8003e98:	00821234 	movhi	r2,2120
 8003e9c:	109bda04 	addi	r2,r2,28520
 8003ea0:	180690fa 	slli	r3,r3,3
 8003ea4:	10c5883a 	add	r2,r2,r3
 8003ea8:	10800017 	ldw	r2,0(r2)
 8003eac:	10800204 	addi	r2,r2,8
								data_ptr->descr.endpoint.bInterval;
 8003eb0:	e0fffa17 	ldw	r3,-24(fp)
 8003eb4:	18c00183 	ldbu	r3,6(r3)
								data_ptr->descr.endpoint.bEndpointAddress;
						devtable[addr].epinfo[1].Attr =
								data_ptr->descr.endpoint.bmAttributes;
						devtable[addr].epinfo[1].MaxPktSize =
								data_ptr->descr.endpoint.wMaxPacketSize;
						devtable[addr].epinfo[1].Interval =
 8003eb8:	10c00105 	stb	r3,4(r2)
								data_ptr->descr.endpoint.bInterval;
						/* configure device */
						rcode = XferSetConf(addr, 0, confvalue); //set configuration
 8003ebc:	e0fffe03 	ldbu	r3,-8(fp)
 8003ec0:	e0bffc43 	ldbu	r2,-15(fp)
 8003ec4:	d8000415 	stw	zero,16(sp)
 8003ec8:	d8000315 	stw	zero,12(sp)
 8003ecc:	d8000215 	stw	zero,8(sp)
 8003ed0:	d8000115 	stw	zero,4(sp)
 8003ed4:	d8800015 	stw	r2,0(sp)
 8003ed8:	01c00244 	movi	r7,9
 8003edc:	000d883a 	mov	r6,zero
 8003ee0:	000b883a 	mov	r5,zero
 8003ee4:	1809883a 	mov	r4,r3
 8003ee8:	800480c0 	call	800480c <XferCtrlReq>
 8003eec:	e0bffc05 	stb	r2,-16(fp)
						if (rcode) {   //error handling
 8003ef0:	e0bffc03 	ldbu	r2,-16(fp)
 8003ef4:	10000226 	beq	r2,zero,8003f00 <HIDKProbe+0x364>
							return (FALSE);
 8003ef8:	0005883a 	mov	r2,zero
 8003efc:	00002406 	br	8003f90 <HIDKProbe+0x3f4>
						}
						rcode = XferSetProto(addr, 0, hid_device.interface,
 8003f00:	e0fffe03 	ldbu	r3,-8(fp)
 8003f04:	d0a6e6c3 	ldbu	r2,-25701(gp)
 8003f08:	10803fcc 	andi	r2,r2,255
 8003f0c:	d8000415 	stw	zero,16(sp)
 8003f10:	d8000315 	stw	zero,12(sp)
 8003f14:	d8800215 	stw	r2,8(sp)
 8003f18:	d8000115 	stw	zero,4(sp)
 8003f1c:	d8000015 	stw	zero,0(sp)
 8003f20:	01c002c4 	movi	r7,11
 8003f24:	01800844 	movi	r6,33
 8003f28:	000b883a 	mov	r5,zero
 8003f2c:	1809883a 	mov	r4,r3
 8003f30:	800480c0 	call	800480c <XferCtrlReq>
 8003f34:	e0bffc05 	stb	r2,-16(fp)
								BOOT_PROTOCOL);
						if (rcode) {   //error handling
 8003f38:	e0bffc03 	ldbu	r2,-16(fp)
 8003f3c:	10000226 	beq	r2,zero,8003f48 <HIDKProbe+0x3ac>
							return (FALSE);
 8003f40:	0005883a 	mov	r2,zero
 8003f44:	00001206 	br	8003f90 <HIDKProbe+0x3f4>
						} else {
							return (TRUE);
 8003f48:	00800044 	movi	r2,1
 8003f4c:	00001006 	br	8003f90 <HIDKProbe+0x3f4>
				hid_device.interface =
						data_ptr->descr.interface.bInterfaceNumber; //fill in interface number to be used in HID requests
				hid_device.addr = addr;                        //fill in address
				byte_ptr = byte_ptr + data_ptr->descr.config.bLength; //skip to the next descriptor
				data_ptr = (USB_DESCR*) byte_ptr;
				while (byte_ptr < bigbuf + total_length) {
 8003f50:	e0fff90b 	ldhu	r3,-28(fp)
 8003f54:	00821234 	movhi	r2,2120
 8003f58:	109b9a04 	addi	r2,r2,28264
 8003f5c:	1885883a 	add	r2,r3,r2
 8003f60:	e0fffb17 	ldw	r3,-20(fp)
 8003f64:	18bf9f36 	bltu	r3,r2,8003de4 <__alt_data_end+0xfc003de4>
			BYTE subclass = data_ptr->descr.interface.bInterfaceSubClass;
			BYTE protocol = data_ptr->descr.interface.bInterfaceProtocol;
			//printf("class %x, subclass %x, protocol %x,\n", class, subclass,
			//		protocol);
			//interface descriptor
			if (class == HID_INTF && subclass == BOOT_INTF_SUBCLASS
 8003f68:	00000206 	br	8003f74 <HIDKProbe+0x3d8>
						}
					}
				}   //while( byte_ptr....
			}   //if (Class matches
			else { //if class don't match; stop processing after first interface. Not really correct
				return (FALSE);
 8003f6c:	0005883a 	mov	r2,zero
 8003f70:	00000706 	br	8003f90 <HIDKProbe+0x3f4>
	rcode = XferGetConfDescr(addr, 0, total_length, 0, bigbuf); //get the whole configuration
	if (rcode) {   //error handling
		return (FALSE);
	}
	confvalue = data_ptr->descr.config.bConfigurationValue; //save configuration value to use later
	while (byte_ptr < bigbuf + total_length) {             //parse configuration
 8003f74:	e0fff90b 	ldhu	r3,-28(fp)
 8003f78:	00821234 	movhi	r2,2120
 8003f7c:	109b9a04 	addi	r2,r2,28264
 8003f80:	1885883a 	add	r2,r3,r2
 8003f84:	e0fffb17 	ldw	r3,-20(fp)
 8003f88:	18bf4736 	bltu	r3,r2,8003ca8 <__alt_data_end+0xfc003ca8>
			else { //if class don't match; stop processing after first interface. Not really correct
				return (FALSE);
			}
		} //else if( data_ptr->
	} // while( byte_ptr < &buf + total_length
	return (FALSE);
 8003f8c:	0005883a 	mov	r2,zero
}
 8003f90:	e037883a 	mov	sp,fp
 8003f94:	dfc00117 	ldw	ra,4(sp)
 8003f98:	df000017 	ldw	fp,0(sp)
 8003f9c:	dec00204 	addi	sp,sp,8
 8003fa0:	f800283a 	ret

08003fa4 <HID_init>:
/* HID data structures initialization */
void HID_init(void) {
 8003fa4:	deffff04 	addi	sp,sp,-4
 8003fa8:	df000015 	stw	fp,0(sp)
 8003fac:	d839883a 	mov	fp,sp
	hid_ep[1].sndToggle = bmSNDTOG0;
 8003fb0:	00820db4 	movhi	r2,2102
 8003fb4:	10ab8604 	addi	r2,r2,-20968
 8003fb8:	00c01004 	movi	r3,64
 8003fbc:	10c00345 	stb	r3,13(r2)
	hid_ep[1].rcvToggle = bmRCVTOG0;
 8003fc0:	00820db4 	movhi	r2,2102
 8003fc4:	10ab8604 	addi	r2,r2,-20968
 8003fc8:	00c00404 	movi	r3,16
 8003fcc:	10c00385 	stb	r3,14(r2)
}
 8003fd0:	0001883a 	nop
 8003fd4:	e037883a 	mov	sp,fp
 8003fd8:	df000017 	ldw	fp,0(sp)
 8003fdc:	dec00104 	addi	sp,sp,4
 8003fe0:	f800283a 	ret

08003fe4 <mousePoll>:
/* poll boot mouse */
BYTE mousePoll(BOOT_MOUSE_REPORT* buf) {
 8003fe4:	defffb04 	addi	sp,sp,-20
 8003fe8:	dfc00415 	stw	ra,16(sp)
 8003fec:	df000315 	stw	fp,12(sp)
 8003ff0:	df000304 	addi	fp,sp,12
 8003ff4:	e13fff15 	stw	r4,-4(fp)
	BYTE rcode;
	MAXreg_wr( rPERADDR, hid_device.addr);    //set peripheral address
 8003ff8:	d0a6e683 	ldbu	r2,-25702(gp)
 8003ffc:	10803fcc 	andi	r2,r2,255
 8004000:	100b883a 	mov	r5,r2
 8004004:	01003804 	movi	r4,224
 8004008:	80041d80 	call	80041d8 <MAXreg_wr>
	rcode = XferInTransfer(hid_device.addr, 1, 5, (BYTE*) buf,
 800400c:	d0a6e683 	ldbu	r2,-25702(gp)
 8004010:	11003fcc 	andi	r4,r2,255
			devtable[hid_device.addr].epinfo[1].MaxPktSize);
 8004014:	d0a6e683 	ldbu	r2,-25702(gp)
 8004018:	10c03fcc 	andi	r3,r2,255
 800401c:	00821234 	movhi	r2,2120
 8004020:	109bda04 	addi	r2,r2,28520
 8004024:	180690fa 	slli	r3,r3,3
 8004028:	10c5883a 	add	r2,r2,r3
 800402c:	10800017 	ldw	r2,0(r2)
 8004030:	10800204 	addi	r2,r2,8
 8004034:	1080008b 	ldhu	r2,2(r2)
}
/* poll boot mouse */
BYTE mousePoll(BOOT_MOUSE_REPORT* buf) {
	BYTE rcode;
	MAXreg_wr( rPERADDR, hid_device.addr);    //set peripheral address
	rcode = XferInTransfer(hid_device.addr, 1, 5, (BYTE*) buf,
 8004038:	10803fcc 	andi	r2,r2,255
 800403c:	d8800015 	stw	r2,0(sp)
 8004040:	e1ffff17 	ldw	r7,-4(fp)
 8004044:	01800144 	movi	r6,5
 8004048:	01400044 	movi	r5,1
 800404c:	8004c300 	call	8004c30 <XferInTransfer>
 8004050:	e0bffe05 	stb	r2,-8(fp)
			devtable[hid_device.addr].epinfo[1].MaxPktSize);
	buf->y = -buf->y;
 8004054:	e0bfff17 	ldw	r2,-4(fp)
 8004058:	10800103 	ldbu	r2,4(r2)
 800405c:	0085c83a 	sub	r2,zero,r2
 8004060:	1007883a 	mov	r3,r2
 8004064:	e0bfff17 	ldw	r2,-4(fp)
 8004068:	10c00105 	stb	r3,4(r2)
	return (rcode);
 800406c:	e0bffe03 	ldbu	r2,-8(fp)
}
 8004070:	e037883a 	mov	sp,fp
 8004074:	dfc00117 	ldw	ra,4(sp)
 8004078:	df000017 	ldw	fp,0(sp)
 800407c:	dec00204 	addi	sp,sp,8
 8004080:	f800283a 	ret

08004084 <kbdPoll>:
/* poll boot keyboard */
BYTE kbdPoll(BOOT_KBD_REPORT* buf) {
 8004084:	defffb04 	addi	sp,sp,-20
 8004088:	dfc00415 	stw	ra,16(sp)
 800408c:	df000315 	stw	fp,12(sp)
 8004090:	df000304 	addi	fp,sp,12
 8004094:	e13fff15 	stw	r4,-4(fp)
	BYTE rcode;
